ARM GAS  C:\Users\Calin\AppData\Local\Temp\cckByqFG.s 			page 1


   1              		.cpu cortex-m0
   2              		.fpu softvfp
   3              		.eabi_attribute 20, 1
   4              		.eabi_attribute 21, 1
   5              		.eabi_attribute 23, 3
   6              		.eabi_attribute 24, 1
   7              		.eabi_attribute 25, 1
   8              		.eabi_attribute 26, 1
   9              		.eabi_attribute 30, 1
  10              		.eabi_attribute 34, 0
  11              		.eabi_attribute 18, 4
  12              		.code	16
  13              		.file	"ADC_VC.c"
  14              		.text
  15              	.Ltext0:
  16              		.cfi_sections	.debug_frame
  17              		.section	.text.ADC_VC_Init,"ax",%progbits
  18              		.align	2
  19              		.global	ADC_VC_Init
  20              		.code	16
  21              		.thumb_func
  22              		.type	ADC_VC_Init, %function
  23              	ADC_VC_Init:
  24              	.LFB1:
  25              		.file 1 ".\\Generated_Source\\PSoC4\\ADC_VC.c"
   1:.\Generated_Source\PSoC4/ADC_VC.c **** /*******************************************************************************
   2:.\Generated_Source\PSoC4/ADC_VC.c **** * File Name: ADC_VC.c
   3:.\Generated_Source\PSoC4/ADC_VC.c **** * Version 2.30
   4:.\Generated_Source\PSoC4/ADC_VC.c **** *
   5:.\Generated_Source\PSoC4/ADC_VC.c **** * Description:
   6:.\Generated_Source\PSoC4/ADC_VC.c **** *  This file provides the source code to the API for the Sequencing Successive
   7:.\Generated_Source\PSoC4/ADC_VC.c **** *  Approximation ADC Component Component.
   8:.\Generated_Source\PSoC4/ADC_VC.c **** *
   9:.\Generated_Source\PSoC4/ADC_VC.c **** * Note:
  10:.\Generated_Source\PSoC4/ADC_VC.c **** *
  11:.\Generated_Source\PSoC4/ADC_VC.c **** ********************************************************************************
  12:.\Generated_Source\PSoC4/ADC_VC.c **** * Copyright 2008-2015, Cypress Semiconductor Corporation.  All rights reserved.
  13:.\Generated_Source\PSoC4/ADC_VC.c **** * You may use this file only in accordance with the license, terms, conditions,
  14:.\Generated_Source\PSoC4/ADC_VC.c **** * disclaimers, and limitations in the end user license agreement accompanying
  15:.\Generated_Source\PSoC4/ADC_VC.c **** * the software package with which this file was provided.
  16:.\Generated_Source\PSoC4/ADC_VC.c **** *******************************************************************************/
  17:.\Generated_Source\PSoC4/ADC_VC.c **** 
  18:.\Generated_Source\PSoC4/ADC_VC.c **** #include "ADC_VC.h"
  19:.\Generated_Source\PSoC4/ADC_VC.c **** 
  20:.\Generated_Source\PSoC4/ADC_VC.c **** 
  21:.\Generated_Source\PSoC4/ADC_VC.c **** /***************************************
  22:.\Generated_Source\PSoC4/ADC_VC.c **** * Global data allocation
  23:.\Generated_Source\PSoC4/ADC_VC.c **** ***************************************/
  24:.\Generated_Source\PSoC4/ADC_VC.c **** uint8 ADC_VC_initVar = 0u;
  25:.\Generated_Source\PSoC4/ADC_VC.c **** volatile int16 ADC_VC_offset[ADC_VC_TOTAL_CHANNELS_NUM];
  26:.\Generated_Source\PSoC4/ADC_VC.c **** volatile int32 ADC_VC_countsPer10Volt[ADC_VC_TOTAL_CHANNELS_NUM];   /* Gain compensation */
  27:.\Generated_Source\PSoC4/ADC_VC.c **** 
  28:.\Generated_Source\PSoC4/ADC_VC.c **** 
  29:.\Generated_Source\PSoC4/ADC_VC.c **** /***************************************
  30:.\Generated_Source\PSoC4/ADC_VC.c **** * Local data allocation
  31:.\Generated_Source\PSoC4/ADC_VC.c **** ***************************************/
  32:.\Generated_Source\PSoC4/ADC_VC.c **** /* Channels configuration generated by customiser */
ARM GAS  C:\Users\Calin\AppData\Local\Temp\cckByqFG.s 			page 2


  33:.\Generated_Source\PSoC4/ADC_VC.c **** static const uint32 CYCODE ADC_VC_channelsConfig[] = { 0x00000600u, 0x00000600u };
  34:.\Generated_Source\PSoC4/ADC_VC.c **** 
  35:.\Generated_Source\PSoC4/ADC_VC.c **** 
  36:.\Generated_Source\PSoC4/ADC_VC.c **** /*******************************************************************************
  37:.\Generated_Source\PSoC4/ADC_VC.c **** * Function Name: ADC_VC_Start
  38:.\Generated_Source\PSoC4/ADC_VC.c **** ********************************************************************************
  39:.\Generated_Source\PSoC4/ADC_VC.c **** *
  40:.\Generated_Source\PSoC4/ADC_VC.c **** * Summary:
  41:.\Generated_Source\PSoC4/ADC_VC.c **** *  Performs all required initialization for this component
  42:.\Generated_Source\PSoC4/ADC_VC.c **** *  and enables the power. The power will be set to the appropriate
  43:.\Generated_Source\PSoC4/ADC_VC.c **** *  power based on the clock frequency.
  44:.\Generated_Source\PSoC4/ADC_VC.c **** *
  45:.\Generated_Source\PSoC4/ADC_VC.c **** * Parameters:
  46:.\Generated_Source\PSoC4/ADC_VC.c **** *  None.
  47:.\Generated_Source\PSoC4/ADC_VC.c **** *
  48:.\Generated_Source\PSoC4/ADC_VC.c **** * Return:
  49:.\Generated_Source\PSoC4/ADC_VC.c **** *  None.
  50:.\Generated_Source\PSoC4/ADC_VC.c **** *
  51:.\Generated_Source\PSoC4/ADC_VC.c **** * Global variables:
  52:.\Generated_Source\PSoC4/ADC_VC.c **** *  The ADC_VC_initVar variable is used to indicate when/if initial
  53:.\Generated_Source\PSoC4/ADC_VC.c **** *  configuration of this component has happened. The variable is initialized to
  54:.\Generated_Source\PSoC4/ADC_VC.c **** *  zero and set to 1 the first time ADC_Start() is called. This allows for
  55:.\Generated_Source\PSoC4/ADC_VC.c **** *  component Re-Start without re-initialization in all subsequent calls to the
  56:.\Generated_Source\PSoC4/ADC_VC.c **** *  ADC_VC_Start() routine.
  57:.\Generated_Source\PSoC4/ADC_VC.c **** *  If re-initialization of the component is required the variable should be set
  58:.\Generated_Source\PSoC4/ADC_VC.c **** *  to zero before call of ADC_VC_Start() routine, or the user may call
  59:.\Generated_Source\PSoC4/ADC_VC.c **** *  ADC_VC_Init() and ADC_VC_Enable() as done in the
  60:.\Generated_Source\PSoC4/ADC_VC.c **** *  ADC_VC_Start() routine.
  61:.\Generated_Source\PSoC4/ADC_VC.c **** *
  62:.\Generated_Source\PSoC4/ADC_VC.c **** *******************************************************************************/
  63:.\Generated_Source\PSoC4/ADC_VC.c **** void ADC_VC_Start(void)
  64:.\Generated_Source\PSoC4/ADC_VC.c **** {
  65:.\Generated_Source\PSoC4/ADC_VC.c ****     /* If not Initialized then initialize all required hardware and software */
  66:.\Generated_Source\PSoC4/ADC_VC.c ****     if(ADC_VC_initVar == 0u)
  67:.\Generated_Source\PSoC4/ADC_VC.c ****     {
  68:.\Generated_Source\PSoC4/ADC_VC.c ****         ADC_VC_Init();
  69:.\Generated_Source\PSoC4/ADC_VC.c ****         ADC_VC_initVar = 1u;
  70:.\Generated_Source\PSoC4/ADC_VC.c ****     }
  71:.\Generated_Source\PSoC4/ADC_VC.c ****     ADC_VC_Enable();
  72:.\Generated_Source\PSoC4/ADC_VC.c **** }
  73:.\Generated_Source\PSoC4/ADC_VC.c **** 
  74:.\Generated_Source\PSoC4/ADC_VC.c **** 
  75:.\Generated_Source\PSoC4/ADC_VC.c **** /*******************************************************************************
  76:.\Generated_Source\PSoC4/ADC_VC.c **** * Function Name: ADC_VC_Init
  77:.\Generated_Source\PSoC4/ADC_VC.c **** ********************************************************************************
  78:.\Generated_Source\PSoC4/ADC_VC.c **** *
  79:.\Generated_Source\PSoC4/ADC_VC.c **** * Summary:
  80:.\Generated_Source\PSoC4/ADC_VC.c **** *  Initialize component's parameters to the parameters set by user in the
  81:.\Generated_Source\PSoC4/ADC_VC.c **** *  customizer of the component placed onto schematic. Usually called in
  82:.\Generated_Source\PSoC4/ADC_VC.c **** *  ADC_VC_Start().
  83:.\Generated_Source\PSoC4/ADC_VC.c **** *
  84:.\Generated_Source\PSoC4/ADC_VC.c **** * Parameters:
  85:.\Generated_Source\PSoC4/ADC_VC.c **** *  None.
  86:.\Generated_Source\PSoC4/ADC_VC.c **** *
  87:.\Generated_Source\PSoC4/ADC_VC.c **** * Return:
  88:.\Generated_Source\PSoC4/ADC_VC.c **** *  None.
  89:.\Generated_Source\PSoC4/ADC_VC.c **** *
ARM GAS  C:\Users\Calin\AppData\Local\Temp\cckByqFG.s 			page 3


  90:.\Generated_Source\PSoC4/ADC_VC.c **** * Global variables:
  91:.\Generated_Source\PSoC4/ADC_VC.c **** *  The ADC_VC_offset variable is initialized.
  92:.\Generated_Source\PSoC4/ADC_VC.c **** *
  93:.\Generated_Source\PSoC4/ADC_VC.c **** *******************************************************************************/
  94:.\Generated_Source\PSoC4/ADC_VC.c **** void ADC_VC_Init(void)
  95:.\Generated_Source\PSoC4/ADC_VC.c **** {
  26              		.loc 1 95 0
  27              		.cfi_startproc
  28 0000 10B5     		push	{r4, lr}
  29              		.cfi_def_cfa_offset 8
  30              		.cfi_offset 4, -8
  31              		.cfi_offset 14, -4
  96:.\Generated_Source\PSoC4/ADC_VC.c ****     uint32 chNum;
  97:.\Generated_Source\PSoC4/ADC_VC.c ****     uint32 tmpRegVal;
  98:.\Generated_Source\PSoC4/ADC_VC.c ****     int32 counts;
  99:.\Generated_Source\PSoC4/ADC_VC.c **** 
 100:.\Generated_Source\PSoC4/ADC_VC.c ****     #if(ADC_VC_TOTAL_CHANNELS_NUM > 1u)
 101:.\Generated_Source\PSoC4/ADC_VC.c ****         static const uint8 CYCODE ADC_VC_InputsPlacement[] =
 102:.\Generated_Source\PSoC4/ADC_VC.c ****         {
 103:.\Generated_Source\PSoC4/ADC_VC.c ****             (uint8)(ADC_VC_cy_psoc4_sarmux_8__CH_0_PORT << 4u) |
 104:.\Generated_Source\PSoC4/ADC_VC.c ****             (uint8)ADC_VC_cy_psoc4_sarmux_8__CH_0_PIN
 105:.\Generated_Source\PSoC4/ADC_VC.c ****             ,(uint8)(ADC_VC_cy_psoc4_sarmux_8__CH_1_PORT << 4u) |
 106:.\Generated_Source\PSoC4/ADC_VC.c ****              (uint8)ADC_VC_cy_psoc4_sarmux_8__CH_1_PIN
 107:.\Generated_Source\PSoC4/ADC_VC.c ****             #if(ADC_VC_TOTAL_CHANNELS_NUM > 2u)
 108:.\Generated_Source\PSoC4/ADC_VC.c ****                 ,(uint8)(ADC_VC_cy_psoc4_sarmux_8__CH_2_PORT << 4u) |
 109:.\Generated_Source\PSoC4/ADC_VC.c ****                  (uint8)ADC_VC_cy_psoc4_sarmux_8__CH_2_PIN
 110:.\Generated_Source\PSoC4/ADC_VC.c ****             #endif /* End ADC_VC_TOTAL_CHANNELS_NUM > 2u */
 111:.\Generated_Source\PSoC4/ADC_VC.c ****             #if(ADC_VC_TOTAL_CHANNELS_NUM > 3u)
 112:.\Generated_Source\PSoC4/ADC_VC.c ****                 ,(uint8)(ADC_VC_cy_psoc4_sarmux_8__CH_3_PORT << 4u) |
 113:.\Generated_Source\PSoC4/ADC_VC.c ****                  (uint8)ADC_VC_cy_psoc4_sarmux_8__CH_3_PIN
 114:.\Generated_Source\PSoC4/ADC_VC.c ****             #endif /* End ADC_VC_TOTAL_CHANNELS_NUM > 3u */
 115:.\Generated_Source\PSoC4/ADC_VC.c ****             #if(ADC_VC_TOTAL_CHANNELS_NUM > 4u)
 116:.\Generated_Source\PSoC4/ADC_VC.c ****                 ,(uint8)(ADC_VC_cy_psoc4_sarmux_8__CH_4_PORT << 4u) |
 117:.\Generated_Source\PSoC4/ADC_VC.c ****                  (uint8)ADC_VC_cy_psoc4_sarmux_8__CH_4_PIN
 118:.\Generated_Source\PSoC4/ADC_VC.c ****             #endif /* End ADC_VC_TOTAL_CHANNELS_NUM > 4u */
 119:.\Generated_Source\PSoC4/ADC_VC.c ****             #if(ADC_VC_TOTAL_CHANNELS_NUM > 5u)
 120:.\Generated_Source\PSoC4/ADC_VC.c ****                 ,(uint8)(ADC_VC_cy_psoc4_sarmux_8__CH_5_PORT << 4u) |
 121:.\Generated_Source\PSoC4/ADC_VC.c ****                  (uint8)ADC_VC_cy_psoc4_sarmux_8__CH_5_PIN
 122:.\Generated_Source\PSoC4/ADC_VC.c ****             #endif /* End ADC_VC_TOTAL_CHANNELS_NUM > 5u */
 123:.\Generated_Source\PSoC4/ADC_VC.c ****             #if(ADC_VC_TOTAL_CHANNELS_NUM > 6u)
 124:.\Generated_Source\PSoC4/ADC_VC.c ****                 ,(uint8)(ADC_VC_cy_psoc4_sarmux_8__CH_6_PORT << 4u) |
 125:.\Generated_Source\PSoC4/ADC_VC.c ****                  (uint8)ADC_VC_cy_psoc4_sarmux_8__CH_6_PIN
 126:.\Generated_Source\PSoC4/ADC_VC.c ****             #endif /* End ADC_VC_TOTAL_CHANNELS_NUM > 6u */
 127:.\Generated_Source\PSoC4/ADC_VC.c ****             #if(ADC_VC_TOTAL_CHANNELS_NUM > 7u)
 128:.\Generated_Source\PSoC4/ADC_VC.c ****                 ,(uint8)(ADC_VC_cy_psoc4_sarmux_8__CH_7_PORT << 4u) |
 129:.\Generated_Source\PSoC4/ADC_VC.c ****                  (uint8)ADC_VC_cy_psoc4_sarmux_8__CH_7_PIN
 130:.\Generated_Source\PSoC4/ADC_VC.c ****             #endif /* End ADC_VC_TOTAL_CHANNELS_NUM > 7u */
 131:.\Generated_Source\PSoC4/ADC_VC.c ****             #if(ADC_VC_TOTAL_CHANNELS_NUM > 8u)
 132:.\Generated_Source\PSoC4/ADC_VC.c ****                 ,(uint8)(ADC_VC_cy_psoc4_sarmux_8__CH_8_PORT << 4u) |
 133:.\Generated_Source\PSoC4/ADC_VC.c ****                  (uint8)ADC_VC_cy_psoc4_sarmux_8__CH_8_PIN
 134:.\Generated_Source\PSoC4/ADC_VC.c ****             #endif /* End ADC_VC_TOTAL_CHANNELS_NUM > 8u */
 135:.\Generated_Source\PSoC4/ADC_VC.c ****             #if(ADC_VC_TOTAL_CHANNELS_NUM > 9u)
 136:.\Generated_Source\PSoC4/ADC_VC.c ****                 ,(uint8)(ADC_VC_cy_psoc4_sarmux_8__CH_9_PORT << 4u) |
 137:.\Generated_Source\PSoC4/ADC_VC.c ****                  (uint8)ADC_VC_cy_psoc4_sarmux_8__CH_9_PIN
 138:.\Generated_Source\PSoC4/ADC_VC.c ****             #endif /* End ADC_VC_TOTAL_CHANNELS_NUM > 9u */
 139:.\Generated_Source\PSoC4/ADC_VC.c ****             #if(ADC_VC_TOTAL_CHANNELS_NUM > 10u)
 140:.\Generated_Source\PSoC4/ADC_VC.c ****                 ,(uint8)(ADC_VC_cy_psoc4_sarmux_8__CH_10_PORT << 4u) |
ARM GAS  C:\Users\Calin\AppData\Local\Temp\cckByqFG.s 			page 4


 141:.\Generated_Source\PSoC4/ADC_VC.c ****                  (uint8)ADC_VC_cy_psoc4_sarmux_8__CH_10_PIN
 142:.\Generated_Source\PSoC4/ADC_VC.c ****             #endif /* End ADC_VC_TOTAL_CHANNELS_NUM > 10u */
 143:.\Generated_Source\PSoC4/ADC_VC.c ****             #if(ADC_VC_TOTAL_CHANNELS_NUM > 11u)
 144:.\Generated_Source\PSoC4/ADC_VC.c ****                 ,(uint8)(ADC_VC_cy_psoc4_sarmux_8__CH_11_PORT << 4u) |
 145:.\Generated_Source\PSoC4/ADC_VC.c ****                  (uint8)ADC_VC_cy_psoc4_sarmux_8__CH_11_PIN
 146:.\Generated_Source\PSoC4/ADC_VC.c ****             #endif /* End ADC_VC_TOTAL_CHANNELS_NUM > 11u */
 147:.\Generated_Source\PSoC4/ADC_VC.c ****             #if(ADC_VC_TOTAL_CHANNELS_NUM > 12u)
 148:.\Generated_Source\PSoC4/ADC_VC.c ****                 ,(uint8)(ADC_VC_cy_psoc4_sarmux_8__CH_12_PORT << 4u) |
 149:.\Generated_Source\PSoC4/ADC_VC.c ****                  (uint8)ADC_VC_cy_psoc4_sarmux_8__CH_12_PIN
 150:.\Generated_Source\PSoC4/ADC_VC.c ****             #endif /* End ADC_VC_TOTAL_CHANNELS_NUM > 12u */
 151:.\Generated_Source\PSoC4/ADC_VC.c ****             #if(ADC_VC_TOTAL_CHANNELS_NUM > 13u)
 152:.\Generated_Source\PSoC4/ADC_VC.c ****                 ,(uint8)(ADC_VC_cy_psoc4_sarmux_8__CH_13_PORT << 4u) |
 153:.\Generated_Source\PSoC4/ADC_VC.c ****                  (uint8)ADC_VC_cy_psoc4_sarmux_8__CH_13_PIN
 154:.\Generated_Source\PSoC4/ADC_VC.c ****             #endif /* End ADC_VC_TOTAL_CHANNELS_NUM > 13u */
 155:.\Generated_Source\PSoC4/ADC_VC.c ****             #if(ADC_VC_TOTAL_CHANNELS_NUM > 14u)
 156:.\Generated_Source\PSoC4/ADC_VC.c ****                 ,(uint8)(ADC_VC_cy_psoc4_sarmux_8__CH_14_PORT << 4u) |
 157:.\Generated_Source\PSoC4/ADC_VC.c ****                  (uint8)ADC_VC_cy_psoc4_sarmux_8__CH_14_PIN
 158:.\Generated_Source\PSoC4/ADC_VC.c ****             #endif /* End ADC_VC_TOTAL_CHANNELS_NUM > 14u */
 159:.\Generated_Source\PSoC4/ADC_VC.c ****             #if(ADC_VC_TOTAL_CHANNELS_NUM > 15u)
 160:.\Generated_Source\PSoC4/ADC_VC.c ****                 ,(uint8)(ADC_VC_cy_psoc4_sarmux_8__CH_15_PORT << 4u) |
 161:.\Generated_Source\PSoC4/ADC_VC.c ****                  (uint8)ADC_VC_cy_psoc4_sarmux_8__CH_15_PIN
 162:.\Generated_Source\PSoC4/ADC_VC.c ****             #endif /* End ADC_VC_TOTAL_CHANNELS_NUM > 15u */
 163:.\Generated_Source\PSoC4/ADC_VC.c ****             #if(ADC_VC_TOTAL_CHANNELS_NUM > 16u)
 164:.\Generated_Source\PSoC4/ADC_VC.c ****                 ,(uint8)(ADC_VC_cy_psoc4_sarmux_8__CH_16_PORT << 4u) |
 165:.\Generated_Source\PSoC4/ADC_VC.c ****                  (uint8)ADC_VC_cy_psoc4_sarmux_8__CH_16_PIN
 166:.\Generated_Source\PSoC4/ADC_VC.c ****             #endif /* End ADC_VC_TOTAL_CHANNELS_NUM > 16u */
 167:.\Generated_Source\PSoC4/ADC_VC.c ****         };
 168:.\Generated_Source\PSoC4/ADC_VC.c ****     #endif /* End ADC_VC_TOTAL_CHANNELS_NUM > 1u */
 169:.\Generated_Source\PSoC4/ADC_VC.c **** 
 170:.\Generated_Source\PSoC4/ADC_VC.c ****     #if(ADC_VC_IRQ_REMOVE == 0u)
 171:.\Generated_Source\PSoC4/ADC_VC.c ****         /* Start and set interrupt vector */
 172:.\Generated_Source\PSoC4/ADC_VC.c ****         CyIntSetPriority(ADC_VC_INTC_NUMBER, ADC_VC_INTC_PRIOR_NUMBER);
  32              		.loc 1 172 0
  33 0002 0E20     		mov	r0, #14
  34 0004 0321     		mov	r1, #3
  35 0006 FFF7FEFF 		bl	CyIntSetPriority
  36              	.LVL0:
 173:.\Generated_Source\PSoC4/ADC_VC.c ****         (void)CyIntSetVector(ADC_VC_INTC_NUMBER, &ADC_VC_ISR);
  37              		.loc 1 173 0
  38 000a 0E20     		mov	r0, #14
  39 000c 4049     		ldr	r1, .L12
  40 000e FFF7FEFF 		bl	CyIntSetVector
  41              	.LVL1:
 174:.\Generated_Source\PSoC4/ADC_VC.c ****     #endif   /* End ADC_VC_IRQ_REMOVE */
 175:.\Generated_Source\PSoC4/ADC_VC.c **** 
 176:.\Generated_Source\PSoC4/ADC_VC.c ****     /* Init SAR and MUX registers */
 177:.\Generated_Source\PSoC4/ADC_VC.c ****     ADC_VC_SAR_CHAN_EN_REG = ADC_VC_DEFAULT_EN_CHANNELS;
  42              		.loc 1 177 0
  43 0012 0322     		mov	r2, #3
  44 0014 3F4B     		ldr	r3, .L12+4
  45 0016 1A60     		str	r2, [r3]
 178:.\Generated_Source\PSoC4/ADC_VC.c ****     ADC_VC_SAR_CTRL_REG |= ADC_VC_DEFAULT_CTRL_REG_CFG | 
 179:.\Generated_Source\PSoC4/ADC_VC.c ****         /* Enable the SAR internal pump when global pump is enabled */
 180:.\Generated_Source\PSoC4/ADC_VC.c ****         (((ADC_VC_PUMP_CTRL_REG & ADC_VC_PUMP_CTRL_ENABLED) != 0u) ? 
  46              		.loc 1 180 0
  47 0018 3F4B     		ldr	r3, .L12+8
  48 001a 1B68     		ldr	r3, [r3]
ARM GAS  C:\Users\Calin\AppData\Local\Temp\cckByqFG.s 			page 5


 178:.\Generated_Source\PSoC4/ADC_VC.c ****     ADC_VC_SAR_CTRL_REG |= ADC_VC_DEFAULT_CTRL_REG_CFG | 
  49              		.loc 1 178 0
  50 001c 002B     		cmp	r3, #0
  51 001e 01DA     		bge	.L10
  52 0020 3E49     		ldr	r1, .L12+12
  53 0022 00E0     		b	.L2
  54              	.L10:
  55 0024 3E49     		ldr	r1, .L12+16
  56              	.L2:
 178:.\Generated_Source\PSoC4/ADC_VC.c ****     ADC_VC_SAR_CTRL_REG |= ADC_VC_DEFAULT_CTRL_REG_CFG | 
  57              		.loc 1 178 0 is_stmt 0 discriminator 4
  58 0026 3F4A     		ldr	r2, .L12+20
  59 0028 1368     		ldr	r3, [r2]
  60 002a 0B43     		orr	r3, r1
  61 002c 1360     		str	r3, [r2]
 181:.\Generated_Source\PSoC4/ADC_VC.c ****         ADC_VC_BOOSTPUMP_EN : 0u);
 182:.\Generated_Source\PSoC4/ADC_VC.c ****     ADC_VC_SAR_SAMPLE_CTRL_REG = ADC_VC_DEFAULT_SAMPLE_CTRL_REG_CFG;
  62              		.loc 1 182 0 is_stmt 1 discriminator 4
  63 002e 3E4A     		ldr	r2, .L12+24
  64 0030 3E4B     		ldr	r3, .L12+28
  65 0032 1A60     		str	r2, [r3]
 183:.\Generated_Source\PSoC4/ADC_VC.c ****     ADC_VC_SAR_RANGE_THRES_REG = ADC_VC_DEFAULT_RANGE_THRES_REG_CFG;
  66              		.loc 1 183 0 discriminator 4
  67 0034 3E4A     		ldr	r2, .L12+32
  68 0036 3F4B     		ldr	r3, .L12+36
  69 0038 1A60     		str	r2, [r3]
 184:.\Generated_Source\PSoC4/ADC_VC.c ****     ADC_VC_SAR_RANGE_COND_REG  = ADC_VC_COMPARE_MODE;
  70              		.loc 1 184 0 discriminator 4
  71 003a 0023     		mov	r3, #0
  72 003c 3E4A     		ldr	r2, .L12+40
  73 003e 1360     		str	r3, [r2]
 185:.\Generated_Source\PSoC4/ADC_VC.c ****     ADC_VC_SAR_SAMPLE_TIME01_REG = ADC_VC_DEFAULT_SAMPLE_TIME01_REG_CFG;
  74              		.loc 1 185 0 discriminator 4
  75 0040 3E4A     		ldr	r2, .L12+44
  76 0042 3F49     		ldr	r1, .L12+48
  77 0044 0A60     		str	r2, [r1]
 186:.\Generated_Source\PSoC4/ADC_VC.c ****     ADC_VC_SAR_SAMPLE_TIME23_REG = ADC_VC_DEFAULT_SAMPLE_TIME23_REG_CFG;
  78              		.loc 1 186 0 discriminator 4
  79 0046 3F49     		ldr	r1, .L12+52
  80 0048 0A60     		str	r2, [r1]
 187:.\Generated_Source\PSoC4/ADC_VC.c ****     
 188:.\Generated_Source\PSoC4/ADC_VC.c ****     /* Connect Vm to VSSA when even one channel is single-ended or multiple channels configured */
 189:.\Generated_Source\PSoC4/ADC_VC.c ****     #if(ADC_VC_DEFAULT_MUX_SWITCH0 != 0u)
 190:.\Generated_Source\PSoC4/ADC_VC.c ****         ADC_VC_MUX_SWITCH0_REG |= ADC_VC_DEFAULT_MUX_SWITCH0;
 191:.\Generated_Source\PSoC4/ADC_VC.c ****         /* Set MUX_HW_CTRL_VSSA in MUX_SWITCH_HW_CTRL when multiple channels enabled */
 192:.\Generated_Source\PSoC4/ADC_VC.c ****         #if(ADC_VC_TOTAL_CHANNELS_NUM > 1u)
 193:.\Generated_Source\PSoC4/ADC_VC.c ****             ADC_VC_MUX_SWITCH_HW_CTRL_REG |= ADC_VC_DEFAULT_MUX_SWITCH0;
 194:.\Generated_Source\PSoC4/ADC_VC.c ****         #endif /* ADC_VC_TOTAL_CHANNELS_NUM > 1u */
 195:.\Generated_Source\PSoC4/ADC_VC.c ****     #endif /*ADC_VC_CHANNELS_MODE !=0 */
 196:.\Generated_Source\PSoC4/ADC_VC.c **** 
 197:.\Generated_Source\PSoC4/ADC_VC.c ****     ADC_VC_SAR_SATURATE_INTR_MASK_REG = 0u;
  81              		.loc 1 197 0 discriminator 4
  82 004a 3F4A     		ldr	r2, .L12+56
  83 004c 1360     		str	r3, [r2]
 198:.\Generated_Source\PSoC4/ADC_VC.c ****     ADC_VC_SAR_RANGE_INTR_MASK_REG = 0u;
  84              		.loc 1 198 0 discriminator 4
  85 004e 3F4A     		ldr	r2, .L12+60
ARM GAS  C:\Users\Calin\AppData\Local\Temp\cckByqFG.s 			page 6


  86 0050 1360     		str	r3, [r2]
 199:.\Generated_Source\PSoC4/ADC_VC.c ****     ADC_VC_SAR_INTR_MASK_REG = ADC_VC_SAR_INTR_MASK;
  87              		.loc 1 199 0 discriminator 4
  88 0052 0122     		mov	r2, #1
  89 0054 3E4B     		ldr	r3, .L12+64
  90 0056 1A60     		str	r2, [r3]
 200:.\Generated_Source\PSoC4/ADC_VC.c **** 
 201:.\Generated_Source\PSoC4/ADC_VC.c ****     #if(ADC_VC_CY_SAR_IP_VER == ADC_VC_CY_SAR_IP_VER0)
 202:.\Generated_Source\PSoC4/ADC_VC.c ****         ADC_VC_ANA_TRIM_REG = ADC_VC_TRIM_COEF;
  91              		.loc 1 202 0 discriminator 4
  92 0058 0221     		mov	r1, #2
  93 005a 3E4B     		ldr	r3, .L12+68
  94 005c 1960     		str	r1, [r3]
 203:.\Generated_Source\PSoC4/ADC_VC.c ****     #endif /* (ADC_VC_CY_SAR_IP_VER == ADC_VC_CY_SAR_IP_VER0) */
 204:.\Generated_Source\PSoC4/ADC_VC.c **** 
 205:.\Generated_Source\PSoC4/ADC_VC.c ****     /* Read and modify default configuration based on characterization */
 206:.\Generated_Source\PSoC4/ADC_VC.c ****     tmpRegVal = ADC_VC_SAR_DFT_CTRL_REG;
  95              		.loc 1 206 0 discriminator 4
  96 005e 3E49     		ldr	r1, .L12+72
  97 0060 0868     		ldr	r0, [r1]
  98              	.LVL2:
 207:.\Generated_Source\PSoC4/ADC_VC.c ****     tmpRegVal &= (uint32)~ADC_VC_DCEN;
  99              		.loc 1 207 0 discriminator 4
 100 0062 3E4B     		ldr	r3, .L12+76
 101 0064 0340     		and	r3, r0
 102              	.LVL3:
 208:.\Generated_Source\PSoC4/ADC_VC.c ****     
 209:.\Generated_Source\PSoC4/ADC_VC.c ****     #if(ADC_VC_CY_SAR_IP_VER == ADC_VC_CY_SAR_IP_VER0)
 210:.\Generated_Source\PSoC4/ADC_VC.c ****         #if(ADC_VC_NOMINAL_CLOCK_FREQ > (ADC_VC_MAX_FREQUENCY / 2))
 211:.\Generated_Source\PSoC4/ADC_VC.c ****             tmpRegVal |= ADC_VC_SEL_CSEL_DFT_CHAR;
 212:.\Generated_Source\PSoC4/ADC_VC.c ****         #else  /* clock speed < 9 Mhz */
 213:.\Generated_Source\PSoC4/ADC_VC.c ****             tmpRegVal |= ADC_VC_DLY_INC;
 103              		.loc 1 213 0 discriminator 4
 104 0066 1343     		orr	r3, r2
 105              	.LVL4:
 214:.\Generated_Source\PSoC4/ADC_VC.c ****         #endif /* clock speed > 9 Mhz */
 215:.\Generated_Source\PSoC4/ADC_VC.c ****     #else
 216:.\Generated_Source\PSoC4/ADC_VC.c ****         #if ((ADC_VC_DEFAULT_VREF_SEL == ADC_VC__INTERNAL1024) || \
 217:.\Generated_Source\PSoC4/ADC_VC.c ****              (ADC_VC_DEFAULT_VREF_SEL == ADC_VC__INTERNALVREF))
 218:.\Generated_Source\PSoC4/ADC_VC.c ****             tmpRegVal |= ADC_VC_DLY_INC;
 219:.\Generated_Source\PSoC4/ADC_VC.c ****         #else
 220:.\Generated_Source\PSoC4/ADC_VC.c ****             tmpRegVal |= ADC_VC_DCEN;
 221:.\Generated_Source\PSoC4/ADC_VC.c ****             tmpRegVal &= (uint32)~ADC_VC_DLY_INC;
 222:.\Generated_Source\PSoC4/ADC_VC.c ****         #endif /* ((ADC_VC_DEFAULT_VREF_SEL == ADC_VC__INTERNAL1024) || \
 223:.\Generated_Source\PSoC4/ADC_VC.c ****                    (ADC_VC_DEFAULT_VREF_SEL == ADC_VC__INTERNALVREF)) */
 224:.\Generated_Source\PSoC4/ADC_VC.c ****     #endif /* (ADC_VC_CY_SAR_IP_VER == ADC_VC_CY_SAR_IP_VER0) */
 225:.\Generated_Source\PSoC4/ADC_VC.c ****     
 226:.\Generated_Source\PSoC4/ADC_VC.c ****     ADC_VC_SAR_DFT_CTRL_REG = tmpRegVal;
 106              		.loc 1 226 0 discriminator 4
 107 0068 0B60     		str	r3, [r1]
 227:.\Generated_Source\PSoC4/ADC_VC.c **** 
 228:.\Generated_Source\PSoC4/ADC_VC.c ****     #if(ADC_VC_MAX_RESOLUTION != ADC_VC_RESOLUTION_12)
 229:.\Generated_Source\PSoC4/ADC_VC.c ****         ADC_VC_WOUNDING_REG = ADC_VC_ALT_WOUNDING;
 108              		.loc 1 229 0 discriminator 4
 109 006a 3D4B     		ldr	r3, .L12+80
 110              	.LVL5:
 111 006c 1A60     		str	r2, [r3]
ARM GAS  C:\Users\Calin\AppData\Local\Temp\cckByqFG.s 			page 7


 112              	.LVL6:
 230:.\Generated_Source\PSoC4/ADC_VC.c ****     #endif /* ADC_VC_MAX_RESOLUTION != ADC_VC_RESOLUTION_12 */
 231:.\Generated_Source\PSoC4/ADC_VC.c **** 
 232:.\Generated_Source\PSoC4/ADC_VC.c ****     for(chNum = 0u; chNum < ADC_VC_TOTAL_CHANNELS_NUM; chNum++)
 113              		.loc 1 232 0 discriminator 4
 114 006e 0022     		mov	r2, #0
 115              	.LVL7:
 116 0070 4BE0     		b	.L3
 117              	.LVL8:
 118              	.L9:
 233:.\Generated_Source\PSoC4/ADC_VC.c ****     {
 234:.\Generated_Source\PSoC4/ADC_VC.c ****         tmpRegVal = (ADC_VC_channelsConfig[chNum] & ADC_VC_CHANNEL_CONFIG_MASK);
 119              		.loc 1 234 0
 120 0072 3C48     		ldr	r0, .L12+84
 121 0074 9100     		lsl	r1, r2, #2
 122 0076 0C58     		ldr	r4, [r1, r0]
 123 0078 DC23     		mov	r3, #220
 124 007a 9B01     		lsl	r3, r3, #6
 125 007c 2340     		and	r3, r4
 126              	.LVL9:
 235:.\Generated_Source\PSoC4/ADC_VC.c ****         #if(ADC_VC_TOTAL_CHANNELS_NUM > 1u)
 236:.\Generated_Source\PSoC4/ADC_VC.c ****             tmpRegVal |= ADC_VC_InputsPlacement[chNum];
 127              		.loc 1 236 0
 128 007e 8018     		add	r0, r0, r2
 129 0080 007A     		ldrb	r0, [r0, #8]
 130 0082 0343     		orr	r3, r0
 131              	.LVL10:
 237:.\Generated_Source\PSoC4/ADC_VC.c ****         #endif /* End ADC_VC_TOTAL_CHANNELS_NUM > 1u */
 238:.\Generated_Source\PSoC4/ADC_VC.c ****         
 239:.\Generated_Source\PSoC4/ADC_VC.c ****         
 240:.\Generated_Source\PSoC4/ADC_VC.c ****         /* When the part is limited to 10-bit then the SUB_RESOLUTION bit
 241:.\Generated_Source\PSoC4/ADC_VC.c ****         *  will be ignored and the RESOLUTION bit selects between 10-bit
 242:.\Generated_Source\PSoC4/ADC_VC.c ****         *  (0) and 8-bit (1) resolution.
 243:.\Generated_Source\PSoC4/ADC_VC.c ****         */
 244:.\Generated_Source\PSoC4/ADC_VC.c ****         #if((ADC_VC_MAX_RESOLUTION != ADC_VC_RESOLUTION_12) && \
 245:.\Generated_Source\PSoC4/ADC_VC.c ****             (ADC_VC_ALT_WOUNDING == ADC_VC_WOUNDING_10BIT))
 246:.\Generated_Source\PSoC4/ADC_VC.c ****             tmpRegVal &= (uint32)(~ADC_VC_ALT_RESOLUTION_ON);
 132              		.loc 1 246 0
 133 0084 3848     		ldr	r0, .L12+88
 134 0086 0340     		and	r3, r0
 135              	.LVL11:
 247:.\Generated_Source\PSoC4/ADC_VC.c ****         #endif /* ADC_VC_MAX_RESOLUTION != ADC_VC_RESOLUTION_12 */
 248:.\Generated_Source\PSoC4/ADC_VC.c **** 
 249:.\Generated_Source\PSoC4/ADC_VC.c ****         #if(ADC_VC_INJ_CHANNEL_ENABLED)
 250:.\Generated_Source\PSoC4/ADC_VC.c ****         if(chNum < ADC_VC_SEQUENCED_CHANNELS_NUM)
 251:.\Generated_Source\PSoC4/ADC_VC.c ****         #endif /* ADC_VC_INJ_CHANNEL_ENABLED */
 252:.\Generated_Source\PSoC4/ADC_VC.c ****         {
 253:.\Generated_Source\PSoC4/ADC_VC.c ****             CY_SET_REG32((reg32 *)(ADC_VC_SAR_CHAN_CONFIG_IND + (uint32)(chNum << 2)), tmpRegVal);
 136              		.loc 1 253 0
 137 0088 3848     		ldr	r0, .L12+92
 138 008a 8446     		mov	ip, r0
 139 008c 6144     		add	r1, r1, ip
 140 008e 0B60     		str	r3, [r1]
 254:.\Generated_Source\PSoC4/ADC_VC.c **** 
 255:.\Generated_Source\PSoC4/ADC_VC.c ****             if((ADC_VC_channelsConfig[chNum] & ADC_VC_IS_SATURATE_EN_MASK) != 0u)
 141              		.loc 1 255 0
 142 0090 E307     		lsl	r3, r4, #31
ARM GAS  C:\Users\Calin\AppData\Local\Temp\cckByqFG.s 			page 8


 143 0092 08D5     		bpl	.L4
 144              	.LVL12:
 256:.\Generated_Source\PSoC4/ADC_VC.c ****             {
 257:.\Generated_Source\PSoC4/ADC_VC.c ****                 ADC_VC_SAR_SATURATE_INTR_MASK_REG |= (uint16)((uint16)1 << chNum);
 145              		.loc 1 257 0
 146 0094 2C48     		ldr	r0, .L12+56
 147 0096 0468     		ldr	r4, [r0]
 148 0098 8021     		mov	r1, #128
 149              	.LVL13:
 150 009a 4902     		lsl	r1, r1, #9
 151 009c 0B1C     		mov	r3, r1
 152 009e 9340     		lsl	r3, r3, r2
 153 00a0 1B0C     		lsr	r3, r3, #16
 154 00a2 2343     		orr	r3, r4
 155 00a4 0360     		str	r3, [r0]
 156              	.LVL14:
 157              	.L4:
 258:.\Generated_Source\PSoC4/ADC_VC.c ****             }
 259:.\Generated_Source\PSoC4/ADC_VC.c **** 
 260:.\Generated_Source\PSoC4/ADC_VC.c ****             if((ADC_VC_channelsConfig[chNum] & ADC_VC_IS_RANGE_CTRL_EN_MASK) != 0u)
 158              		.loc 1 260 0
 159 00a6 9300     		lsl	r3, r2, #2
 160 00a8 2E49     		ldr	r1, .L12+84
 161              	.LVL15:
 162 00aa 5B58     		ldr	r3, [r3, r1]
 163 00ac 9B07     		lsl	r3, r3, #30
 164 00ae 08D5     		bpl	.L5
 261:.\Generated_Source\PSoC4/ADC_VC.c ****             {
 262:.\Generated_Source\PSoC4/ADC_VC.c ****                 ADC_VC_SAR_RANGE_INTR_MASK_REG |= (uint16)((uint16)1 << chNum);
 165              		.loc 1 262 0
 166 00b0 2648     		ldr	r0, .L12+60
 167 00b2 0468     		ldr	r4, [r0]
 168 00b4 8021     		mov	r1, #128
 169              	.LVL16:
 170 00b6 4902     		lsl	r1, r1, #9
 171 00b8 0B1C     		mov	r3, r1
 172 00ba 9340     		lsl	r3, r3, r2
 173 00bc 1B0C     		lsr	r3, r3, #16
 174 00be 2343     		orr	r3, r4
 175 00c0 0360     		str	r3, [r0]
 176              	.L5:
 263:.\Generated_Source\PSoC4/ADC_VC.c ****             }
 264:.\Generated_Source\PSoC4/ADC_VC.c ****         }
 265:.\Generated_Source\PSoC4/ADC_VC.c ****         #if(ADC_VC_INJ_CHANNEL_ENABLED)
 266:.\Generated_Source\PSoC4/ADC_VC.c ****             else
 267:.\Generated_Source\PSoC4/ADC_VC.c ****             {
 268:.\Generated_Source\PSoC4/ADC_VC.c ****                 CY_SET_REG32(ADC_VC_SAR_INJ_CHAN_CONFIG_PTR, tmpRegVal | ADC_VC_INJ_TAILGATING);
 269:.\Generated_Source\PSoC4/ADC_VC.c **** 
 270:.\Generated_Source\PSoC4/ADC_VC.c ****                 if((ADC_VC_channelsConfig[chNum] & ADC_VC_IS_SATURATE_EN_MASK) != 0u)
 271:.\Generated_Source\PSoC4/ADC_VC.c ****                 {
 272:.\Generated_Source\PSoC4/ADC_VC.c ****                     ADC_VC_SAR_INTR_MASK_REG |= ADC_VC_INJ_SATURATE_MASK;
 273:.\Generated_Source\PSoC4/ADC_VC.c ****                 }
 274:.\Generated_Source\PSoC4/ADC_VC.c **** 
 275:.\Generated_Source\PSoC4/ADC_VC.c ****                 if((ADC_VC_channelsConfig[chNum] & ADC_VC_IS_RANGE_CTRL_EN_MASK) != 0u)
 276:.\Generated_Source\PSoC4/ADC_VC.c ****                 {
 277:.\Generated_Source\PSoC4/ADC_VC.c ****                     ADC_VC_SAR_INTR_MASK_REG |= ADC_VC_INJ_RANGE_MASK;
 278:.\Generated_Source\PSoC4/ADC_VC.c ****                 }
ARM GAS  C:\Users\Calin\AppData\Local\Temp\cckByqFG.s 			page 9


 279:.\Generated_Source\PSoC4/ADC_VC.c ****             }
 280:.\Generated_Source\PSoC4/ADC_VC.c ****         #endif /* ADC_VC_INJ_CHANNEL_ENABLED */
 281:.\Generated_Source\PSoC4/ADC_VC.c **** 
 282:.\Generated_Source\PSoC4/ADC_VC.c ****         if((ADC_VC_channelsConfig[chNum] & ADC_VC_ALT_RESOLUTION_ON) != 0u)
 177              		.loc 1 282 0
 178 00c2 9300     		lsl	r3, r2, #2
 179 00c4 2749     		ldr	r1, .L12+84
 180              	.LVL17:
 181 00c6 5958     		ldr	r1, [r3, r1]
 182              	.LVL18:
 183 00c8 8B05     		lsl	r3, r1, #22
 184 00ca 02D5     		bpl	.L11
 283:.\Generated_Source\PSoC4/ADC_VC.c ****         {
 284:.\Generated_Source\PSoC4/ADC_VC.c ****                counts = (int32)ADC_VC_DEFAULT_MAX_WRK_ALT;
 185              		.loc 1 284 0
 186 00cc 8020     		mov	r0, #128
 187 00ce C000     		lsl	r0, r0, #3
 188 00d0 01E0     		b	.L6
 189              	.L11:
 285:.\Generated_Source\PSoC4/ADC_VC.c ****         }
 286:.\Generated_Source\PSoC4/ADC_VC.c ****         else
 287:.\Generated_Source\PSoC4/ADC_VC.c ****         {
 288:.\Generated_Source\PSoC4/ADC_VC.c ****                counts = (int32)ADC_VC_SAR_WRK_MAX_12BIT;
 190              		.loc 1 288 0
 191 00d2 8020     		mov	r0, #128
 192 00d4 4001     		lsl	r0, r0, #5
 193              	.L6:
 194              	.LVL19:
 289:.\Generated_Source\PSoC4/ADC_VC.c ****         }
 290:.\Generated_Source\PSoC4/ADC_VC.c **** 
 291:.\Generated_Source\PSoC4/ADC_VC.c ****         if((ADC_VC_channelsConfig[chNum] & ADC_VC_DIFFERENTIAL_EN) == 0u)
 195              		.loc 1 291 0
 196 00d6 CB05     		lsl	r3, r1, #23
 197 00d8 04D4     		bmi	.L7
 292:.\Generated_Source\PSoC4/ADC_VC.c ****         {
 293:.\Generated_Source\PSoC4/ADC_VC.c ****             #if((ADC_VC_DEFAULT_SE_RESULT_FORMAT_SEL == ADC_VC__FSIGNED) && \
 294:.\Generated_Source\PSoC4/ADC_VC.c ****                 (ADC_VC_DEFAULT_NEG_INPUT_SEL == ADC_VC__VREF))
 295:.\Generated_Source\PSoC4/ADC_VC.c ****                 /* Set offset to the minus half scale to convert results to unsigned format */
 296:.\Generated_Source\PSoC4/ADC_VC.c ****                 ADC_VC_offset[chNum] = (int16)(counts / -2);
 297:.\Generated_Source\PSoC4/ADC_VC.c ****             #else
 298:.\Generated_Source\PSoC4/ADC_VC.c ****                 ADC_VC_offset[chNum] = 0;
 198              		.loc 1 298 0
 199 00da 5300     		lsl	r3, r2, #1
 200 00dc 0024     		mov	r4, #0
 201 00de 2449     		ldr	r1, .L12+96
 202 00e0 5C52     		strh	r4, [r3, r1]
 203 00e2 03E0     		b	.L8
 204              	.L7:
 299:.\Generated_Source\PSoC4/ADC_VC.c ****             #endif /* end DEFAULT_SE_RESULT_FORMAT_SEL == ADC_VC__FSIGNED */
 300:.\Generated_Source\PSoC4/ADC_VC.c ****         }
 301:.\Generated_Source\PSoC4/ADC_VC.c ****         else    /* Differential channel */
 302:.\Generated_Source\PSoC4/ADC_VC.c ****         {
 303:.\Generated_Source\PSoC4/ADC_VC.c ****             #if(ADC_VC_DEFAULT_DIFF_RESULT_FORMAT_SEL == ADC_VC__FUNSIGNED)
 304:.\Generated_Source\PSoC4/ADC_VC.c ****                 /* Set offset to the half scale to convert results to signed format */
 305:.\Generated_Source\PSoC4/ADC_VC.c ****                 ADC_VC_offset[chNum] = (int16)(counts / 2);
 205              		.loc 1 305 0
 206 00e4 4108     		lsr	r1, r0, #1
ARM GAS  C:\Users\Calin\AppData\Local\Temp\cckByqFG.s 			page 10


 207 00e6 5300     		lsl	r3, r2, #1
 208 00e8 214C     		ldr	r4, .L12+96
 209 00ea 1953     		strh	r1, [r3, r4]
 210              	.L8:
 306:.\Generated_Source\PSoC4/ADC_VC.c ****             #else
 307:.\Generated_Source\PSoC4/ADC_VC.c ****                 ADC_VC_offset[chNum] = 0;
 308:.\Generated_Source\PSoC4/ADC_VC.c ****             #endif /* end ADC_VC_DEFAULT_DIFF_RESULT_FORMAT_SEL == ADC_VC__FUNSIGNED */
 309:.\Generated_Source\PSoC4/ADC_VC.c ****         }
 310:.\Generated_Source\PSoC4/ADC_VC.c ****         /* Calculate gain in counts per 10 volts with rounding */
 311:.\Generated_Source\PSoC4/ADC_VC.c ****         ADC_VC_countsPer10Volt[chNum] = (int16)(((counts * ADC_VC_10MV_COUNTS) +
 211              		.loc 1 311 0 discriminator 2
 212 00ec 214B     		ldr	r3, .L12+100
 213 00ee 4343     		mul	r3, r0
 214 00f0 8021     		mov	r1, #128
 215 00f2 C900     		lsl	r1, r1, #3
 216 00f4 8C46     		mov	ip, r1
 217 00f6 6344     		add	r3, r3, ip
 312:.\Generated_Source\PSoC4/ADC_VC.c ****                             ADC_VC_DEFAULT_VREF_MV_VALUE) / (ADC_VC_DEFAULT_VREF_MV_VALUE * 2));
 218              		.loc 1 312 0 discriminator 2
 219 00f8 D917     		asr	r1, r3, #31
 220 00fa 490D     		lsr	r1, r1, #21
 221 00fc CB18     		add	r3, r1, r3
 222 00fe DB12     		asr	r3, r3, #11
 311:.\Generated_Source\PSoC4/ADC_VC.c ****                             ADC_VC_DEFAULT_VREF_MV_VALUE) / (ADC_VC_DEFAULT_VREF_MV_VALUE * 2));
 223              		.loc 1 311 0 discriminator 2
 224 0100 1BB2     		sxth	r3, r3
 225 0102 9000     		lsl	r0, r2, #2
 226              	.LVL20:
 227 0104 1C49     		ldr	r1, .L12+104
 228 0106 4350     		str	r3, [r0, r1]
 232:.\Generated_Source\PSoC4/ADC_VC.c ****     {
 229              		.loc 1 232 0 discriminator 2
 230 0108 0132     		add	r2, r2, #1
 231              	.LVL21:
 232              	.L3:
 232:.\Generated_Source\PSoC4/ADC_VC.c ****     {
 233              		.loc 1 232 0 is_stmt 0 discriminator 1
 234 010a 012A     		cmp	r2, #1
 235 010c B1D9     		bls	.L9
 313:.\Generated_Source\PSoC4/ADC_VC.c ****     }
 314:.\Generated_Source\PSoC4/ADC_VC.c **** }
 236              		.loc 1 314 0 is_stmt 1
 237              		@ sp needed
 238 010e 10BD     		pop	{r4, pc}
 239              	.L13:
 240              		.align	2
 241              	.L12:
 242 0110 00000000 		.word	ADC_VC_ISR
 243 0114 20001A40 		.word	1075445792
 244 0118 80031A40 		.word	1075446656
 245 011c 402E1013 		.word	319827520
 246 0120 402E0013 		.word	318778944
 247 0124 00001A40 		.word	1075445760
 248 0128 A1000A80 		.word	-2146828127
 249 012c 04001A40 		.word	1075445764
 250 0130 0000FF07 		.word	134152192
 251 0134 18001A40 		.word	1075445784
ARM GAS  C:\Users\Calin\AppData\Local\Temp\cckByqFG.s 			page 11


 252 0138 1C001A40 		.word	1075445788
 253 013c 02000200 		.word	131074
 254 0140 10001A40 		.word	1075445776
 255 0144 14001A40 		.word	1075445780
 256 0148 28021A40 		.word	1075446312
 257 014c 38021A40 		.word	1075446328
 258 0150 18021A40 		.word	1075446296
 259 0154 000F1A40 		.word	1075449600
 260 0158 30001A40 		.word	1075445808
 261 015c FFFFFFDF 		.word	-536870913
 262 0160 040F1A40 		.word	1075449604
 263 0164 00000000 		.word	.LANCHOR0
 264 0168 FFFDFFFF 		.word	-513
 265 016c 80001A40 		.word	1075445888
 266 0170 00000000 		.word	ADC_VC_offset
 267 0174 10270000 		.word	10000
 268 0178 00000000 		.word	ADC_VC_countsPer10Volt
 269              		.cfi_endproc
 270              	.LFE1:
 271              		.size	ADC_VC_Init, .-ADC_VC_Init
 272              		.section	.text.ADC_VC_Enable,"ax",%progbits
 273              		.align	2
 274              		.global	ADC_VC_Enable
 275              		.code	16
 276              		.thumb_func
 277              		.type	ADC_VC_Enable, %function
 278              	ADC_VC_Enable:
 279              	.LFB2:
 315:.\Generated_Source\PSoC4/ADC_VC.c **** 
 316:.\Generated_Source\PSoC4/ADC_VC.c **** /*******************************************************************************
 317:.\Generated_Source\PSoC4/ADC_VC.c **** * Function Name: ADC_SAR_1_Enable
 318:.\Generated_Source\PSoC4/ADC_VC.c **** ********************************************************************************
 319:.\Generated_Source\PSoC4/ADC_VC.c **** *
 320:.\Generated_Source\PSoC4/ADC_VC.c **** * Summary:
 321:.\Generated_Source\PSoC4/ADC_VC.c **** *  Enables the clock and analog power for SAR ADC.
 322:.\Generated_Source\PSoC4/ADC_VC.c **** *
 323:.\Generated_Source\PSoC4/ADC_VC.c **** * Parameters:
 324:.\Generated_Source\PSoC4/ADC_VC.c **** *  None.
 325:.\Generated_Source\PSoC4/ADC_VC.c **** *
 326:.\Generated_Source\PSoC4/ADC_VC.c **** * Return:
 327:.\Generated_Source\PSoC4/ADC_VC.c **** *  None.
 328:.\Generated_Source\PSoC4/ADC_VC.c **** *
 329:.\Generated_Source\PSoC4/ADC_VC.c **** *******************************************************************************/
 330:.\Generated_Source\PSoC4/ADC_VC.c **** void ADC_VC_Enable(void)
 331:.\Generated_Source\PSoC4/ADC_VC.c **** {
 280              		.loc 1 331 0
 281              		.cfi_startproc
 282 0000 08B5     		push	{r3, lr}
 283              		.cfi_def_cfa_offset 8
 284              		.cfi_offset 3, -8
 285              		.cfi_offset 14, -4
 332:.\Generated_Source\PSoC4/ADC_VC.c ****     if (0u == (ADC_VC_SAR_CTRL_REG & ADC_VC_ENABLE))
 286              		.loc 1 332 0
 287 0002 074B     		ldr	r3, .L16
 288 0004 1B68     		ldr	r3, [r3]
 289 0006 002B     		cmp	r3, #0
 290 0008 08DB     		blt	.L14
ARM GAS  C:\Users\Calin\AppData\Local\Temp\cckByqFG.s 			page 12


 333:.\Generated_Source\PSoC4/ADC_VC.c ****     {
 334:.\Generated_Source\PSoC4/ADC_VC.c ****         #if(ADC_VC_CY_SAR_IP_VER != ADC_VC_CY_SAR_IP_VER0)
 335:.\Generated_Source\PSoC4/ADC_VC.c **** 
 336:.\Generated_Source\PSoC4/ADC_VC.c ****             while (0u != (ADC_VC_SAR_STATUS_REG & ADC_VC_STATUS_BUSY))
 337:.\Generated_Source\PSoC4/ADC_VC.c ****             {
 338:.\Generated_Source\PSoC4/ADC_VC.c ****                 /* wait for SAR to go idle to avoid deadlock */
 339:.\Generated_Source\PSoC4/ADC_VC.c ****             }
 340:.\Generated_Source\PSoC4/ADC_VC.c ****         #endif /* (ADC_VC_CY_SAR_IP_VER != ADC_VC_CY_SAR_IP_VER0) */
 341:.\Generated_Source\PSoC4/ADC_VC.c ****         
 342:.\Generated_Source\PSoC4/ADC_VC.c ****         ADC_VC_SAR_CTRL_REG |= ADC_VC_ENABLE;
 291              		.loc 1 342 0
 292 000a 054A     		ldr	r2, .L16
 293 000c 1368     		ldr	r3, [r2]
 294 000e 8021     		mov	r1, #128
 295 0010 0906     		lsl	r1, r1, #24
 296 0012 0B43     		orr	r3, r1
 297 0014 1360     		str	r3, [r2]
 343:.\Generated_Source\PSoC4/ADC_VC.c ****         
 344:.\Generated_Source\PSoC4/ADC_VC.c ****         /* The block is ready to use 10 us after the enable signal is set high. */
 345:.\Generated_Source\PSoC4/ADC_VC.c ****         CyDelayUs(ADC_VC_10US_DELAY);         
 298              		.loc 1 345 0
 299 0016 0A20     		mov	r0, #10
 300 0018 FFF7FEFF 		bl	CyDelayUs
 301              	.LVL22:
 302              	.L14:
 346:.\Generated_Source\PSoC4/ADC_VC.c ****     }
 347:.\Generated_Source\PSoC4/ADC_VC.c **** }
 303              		.loc 1 347 0
 304              		@ sp needed
 305 001c 08BD     		pop	{r3, pc}
 306              	.L17:
 307 001e C046     		.align	2
 308              	.L16:
 309 0020 00001A40 		.word	1075445760
 310              		.cfi_endproc
 311              	.LFE2:
 312              		.size	ADC_VC_Enable, .-ADC_VC_Enable
 313              		.section	.text.ADC_VC_Start,"ax",%progbits
 314              		.align	2
 315              		.global	ADC_VC_Start
 316              		.code	16
 317              		.thumb_func
 318              		.type	ADC_VC_Start, %function
 319              	ADC_VC_Start:
 320              	.LFB0:
  64:.\Generated_Source\PSoC4/ADC_VC.c ****     /* If not Initialized then initialize all required hardware and software */
 321              		.loc 1 64 0
 322              		.cfi_startproc
 323 0000 08B5     		push	{r3, lr}
 324              		.cfi_def_cfa_offset 8
 325              		.cfi_offset 3, -8
 326              		.cfi_offset 14, -4
  66:.\Generated_Source\PSoC4/ADC_VC.c ****     {
 327              		.loc 1 66 0
 328 0002 064B     		ldr	r3, .L20
 329 0004 1B78     		ldrb	r3, [r3]
 330 0006 002B     		cmp	r3, #0
ARM GAS  C:\Users\Calin\AppData\Local\Temp\cckByqFG.s 			page 13


 331 0008 04D1     		bne	.L19
  68:.\Generated_Source\PSoC4/ADC_VC.c ****         ADC_VC_initVar = 1u;
 332              		.loc 1 68 0
 333 000a FFF7FEFF 		bl	ADC_VC_Init
 334              	.LVL23:
  69:.\Generated_Source\PSoC4/ADC_VC.c ****     }
 335              		.loc 1 69 0
 336 000e 0122     		mov	r2, #1
 337 0010 024B     		ldr	r3, .L20
 338 0012 1A70     		strb	r2, [r3]
 339              	.L19:
  71:.\Generated_Source\PSoC4/ADC_VC.c **** }
 340              		.loc 1 71 0
 341 0014 FFF7FEFF 		bl	ADC_VC_Enable
 342              	.LVL24:
  72:.\Generated_Source\PSoC4/ADC_VC.c **** 
 343              		.loc 1 72 0
 344              		@ sp needed
 345 0018 08BD     		pop	{r3, pc}
 346              	.L21:
 347 001a C046     		.align	2
 348              	.L20:
 349 001c 00000000 		.word	.LANCHOR1
 350              		.cfi_endproc
 351              	.LFE0:
 352              		.size	ADC_VC_Start, .-ADC_VC_Start
 353              		.section	.text.ADC_VC_Stop,"ax",%progbits
 354              		.align	2
 355              		.global	ADC_VC_Stop
 356              		.code	16
 357              		.thumb_func
 358              		.type	ADC_VC_Stop, %function
 359              	ADC_VC_Stop:
 360              	.LFB3:
 348:.\Generated_Source\PSoC4/ADC_VC.c **** 
 349:.\Generated_Source\PSoC4/ADC_VC.c **** 
 350:.\Generated_Source\PSoC4/ADC_VC.c **** /*******************************************************************************
 351:.\Generated_Source\PSoC4/ADC_VC.c **** * Function Name: ADC_VC_Stop
 352:.\Generated_Source\PSoC4/ADC_VC.c **** ********************************************************************************
 353:.\Generated_Source\PSoC4/ADC_VC.c **** *
 354:.\Generated_Source\PSoC4/ADC_VC.c **** * Summary:
 355:.\Generated_Source\PSoC4/ADC_VC.c **** *  This function stops ADC conversions and puts the ADC into its lowest power
 356:.\Generated_Source\PSoC4/ADC_VC.c **** *  mode.
 357:.\Generated_Source\PSoC4/ADC_VC.c **** *
 358:.\Generated_Source\PSoC4/ADC_VC.c **** * Parameters:
 359:.\Generated_Source\PSoC4/ADC_VC.c **** *  None.
 360:.\Generated_Source\PSoC4/ADC_VC.c **** *
 361:.\Generated_Source\PSoC4/ADC_VC.c **** * Return:
 362:.\Generated_Source\PSoC4/ADC_VC.c **** *  None.
 363:.\Generated_Source\PSoC4/ADC_VC.c **** *
 364:.\Generated_Source\PSoC4/ADC_VC.c **** *******************************************************************************/
 365:.\Generated_Source\PSoC4/ADC_VC.c **** void ADC_VC_Stop(void)
 366:.\Generated_Source\PSoC4/ADC_VC.c **** {
 361              		.loc 1 366 0
 362              		.cfi_startproc
 367:.\Generated_Source\PSoC4/ADC_VC.c ****     ADC_VC_SAR_CTRL_REG &= (uint32)~ADC_VC_ENABLE;
 363              		.loc 1 367 0
ARM GAS  C:\Users\Calin\AppData\Local\Temp\cckByqFG.s 			page 14


 364 0000 024A     		ldr	r2, .L23
 365 0002 1368     		ldr	r3, [r2]
 366 0004 5B00     		lsl	r3, r3, #1
 367 0006 5B08     		lsr	r3, r3, #1
 368 0008 1360     		str	r3, [r2]
 368:.\Generated_Source\PSoC4/ADC_VC.c **** }
 369              		.loc 1 368 0
 370              		@ sp needed
 371 000a 7047     		bx	lr
 372              	.L24:
 373              		.align	2
 374              	.L23:
 375 000c 00001A40 		.word	1075445760
 376              		.cfi_endproc
 377              	.LFE3:
 378              		.size	ADC_VC_Stop, .-ADC_VC_Stop
 379              		.section	.text.ADC_VC_StartConvert,"ax",%progbits
 380              		.align	2
 381              		.global	ADC_VC_StartConvert
 382              		.code	16
 383              		.thumb_func
 384              		.type	ADC_VC_StartConvert, %function
 385              	ADC_VC_StartConvert:
 386              	.LFB4:
 369:.\Generated_Source\PSoC4/ADC_VC.c **** 
 370:.\Generated_Source\PSoC4/ADC_VC.c **** 
 371:.\Generated_Source\PSoC4/ADC_VC.c **** /*******************************************************************************
 372:.\Generated_Source\PSoC4/ADC_VC.c **** * Function Name: ADC_VC_StartConvert
 373:.\Generated_Source\PSoC4/ADC_VC.c **** ********************************************************************************
 374:.\Generated_Source\PSoC4/ADC_VC.c **** *
 375:.\Generated_Source\PSoC4/ADC_VC.c **** * Summary:
 376:.\Generated_Source\PSoC4/ADC_VC.c **** *  Description:
 377:.\Generated_Source\PSoC4/ADC_VC.c **** *  For free running mode, this API starts the conversion process and it
 378:.\Generated_Source\PSoC4/ADC_VC.c **** *  runs continuously.
 379:.\Generated_Source\PSoC4/ADC_VC.c **** *
 380:.\Generated_Source\PSoC4/ADC_VC.c **** *  In a triggered mode, this routine triggers every conversion by
 381:.\Generated_Source\PSoC4/ADC_VC.c **** *  writing into the FW_TRIGGER bit in SAR_START_CTRL reg. In triggered mode,
 382:.\Generated_Source\PSoC4/ADC_VC.c **** *  every conversion has to start by this API.
 383:.\Generated_Source\PSoC4/ADC_VC.c **** *
 384:.\Generated_Source\PSoC4/ADC_VC.c **** * Parameters:
 385:.\Generated_Source\PSoC4/ADC_VC.c **** *  None.
 386:.\Generated_Source\PSoC4/ADC_VC.c **** *
 387:.\Generated_Source\PSoC4/ADC_VC.c **** * Return:
 388:.\Generated_Source\PSoC4/ADC_VC.c **** *  None.
 389:.\Generated_Source\PSoC4/ADC_VC.c **** *
 390:.\Generated_Source\PSoC4/ADC_VC.c **** *******************************************************************************/
 391:.\Generated_Source\PSoC4/ADC_VC.c **** void ADC_VC_StartConvert(void)
 392:.\Generated_Source\PSoC4/ADC_VC.c **** {
 387              		.loc 1 392 0
 388              		.cfi_startproc
 393:.\Generated_Source\PSoC4/ADC_VC.c ****     #if(ADC_VC_DEFAULT_SAMPLE_MODE_SEL == ADC_VC__FREERUNNING)
 394:.\Generated_Source\PSoC4/ADC_VC.c ****         ADC_VC_SAR_SAMPLE_CTRL_REG |= ADC_VC_CONTINUOUS_EN;
 395:.\Generated_Source\PSoC4/ADC_VC.c ****     #else /* Firmware trigger */
 396:.\Generated_Source\PSoC4/ADC_VC.c ****         ADC_VC_SAR_START_CTRL_REG = ADC_VC_FW_TRIGGER;
 389              		.loc 1 396 0
 390 0000 0122     		mov	r2, #1
 391 0002 014B     		ldr	r3, .L26
ARM GAS  C:\Users\Calin\AppData\Local\Temp\cckByqFG.s 			page 15


 392 0004 1A60     		str	r2, [r3]
 397:.\Generated_Source\PSoC4/ADC_VC.c ****     #endif /* End ADC_VC_DEFAULT_SAMPLE_MODE == ADC_VC__FREERUNNING */
 398:.\Generated_Source\PSoC4/ADC_VC.c **** 
 399:.\Generated_Source\PSoC4/ADC_VC.c **** }
 393              		.loc 1 399 0
 394              		@ sp needed
 395 0006 7047     		bx	lr
 396              	.L27:
 397              		.align	2
 398              	.L26:
 399 0008 24001A40 		.word	1075445796
 400              		.cfi_endproc
 401              	.LFE4:
 402              		.size	ADC_VC_StartConvert, .-ADC_VC_StartConvert
 403              		.section	.text.ADC_VC_StopConvert,"ax",%progbits
 404              		.align	2
 405              		.global	ADC_VC_StopConvert
 406              		.code	16
 407              		.thumb_func
 408              		.type	ADC_VC_StopConvert, %function
 409              	ADC_VC_StopConvert:
 410              	.LFB5:
 400:.\Generated_Source\PSoC4/ADC_VC.c **** 
 401:.\Generated_Source\PSoC4/ADC_VC.c **** 
 402:.\Generated_Source\PSoC4/ADC_VC.c **** /*******************************************************************************
 403:.\Generated_Source\PSoC4/ADC_VC.c **** * Function Name: ADC_VC_StopConvert
 404:.\Generated_Source\PSoC4/ADC_VC.c **** ********************************************************************************
 405:.\Generated_Source\PSoC4/ADC_VC.c **** *
 406:.\Generated_Source\PSoC4/ADC_VC.c **** * Summary:
 407:.\Generated_Source\PSoC4/ADC_VC.c **** *  Forces the ADC to stop all conversions.
 408:.\Generated_Source\PSoC4/ADC_VC.c **** *
 409:.\Generated_Source\PSoC4/ADC_VC.c **** * Parameters:
 410:.\Generated_Source\PSoC4/ADC_VC.c **** *  None.
 411:.\Generated_Source\PSoC4/ADC_VC.c **** *
 412:.\Generated_Source\PSoC4/ADC_VC.c **** * Return:
 413:.\Generated_Source\PSoC4/ADC_VC.c **** *  None.
 414:.\Generated_Source\PSoC4/ADC_VC.c **** *
 415:.\Generated_Source\PSoC4/ADC_VC.c **** *******************************************************************************/
 416:.\Generated_Source\PSoC4/ADC_VC.c **** void ADC_VC_StopConvert(void)
 417:.\Generated_Source\PSoC4/ADC_VC.c **** {
 411              		.loc 1 417 0
 412              		.cfi_startproc
 418:.\Generated_Source\PSoC4/ADC_VC.c ****     #if(ADC_VC_DEFAULT_SAMPLE_MODE_SEL == ADC_VC__FREERUNNING)
 419:.\Generated_Source\PSoC4/ADC_VC.c ****         ADC_VC_SAR_SAMPLE_CTRL_REG &= (uint32)(~ADC_VC_CONTINUOUS_EN);
 420:.\Generated_Source\PSoC4/ADC_VC.c ****     #endif /* ADC_VC_DEFAULT_SAMPLE_MODE == ADC_VC__FREERUNNING */
 421:.\Generated_Source\PSoC4/ADC_VC.c **** }
 413              		.loc 1 421 0
 414              		@ sp needed
 415 0000 7047     		bx	lr
 416              		.cfi_endproc
 417              	.LFE5:
 418              		.size	ADC_VC_StopConvert, .-ADC_VC_StopConvert
 419 0002 C046     		.section	.text.ADC_VC_IsEndConversion,"ax",%progbits
 420              		.align	2
 421              		.global	ADC_VC_IsEndConversion
 422              		.code	16
 423              		.thumb_func
ARM GAS  C:\Users\Calin\AppData\Local\Temp\cckByqFG.s 			page 16


 424              		.type	ADC_VC_IsEndConversion, %function
 425              	ADC_VC_IsEndConversion:
 426              	.LFB6:
 422:.\Generated_Source\PSoC4/ADC_VC.c **** 
 423:.\Generated_Source\PSoC4/ADC_VC.c **** 
 424:.\Generated_Source\PSoC4/ADC_VC.c **** /*******************************************************************************
 425:.\Generated_Source\PSoC4/ADC_VC.c **** * Function Name: ADC_VC_IsEndConversion
 426:.\Generated_Source\PSoC4/ADC_VC.c **** ********************************************************************************
 427:.\Generated_Source\PSoC4/ADC_VC.c **** *
 428:.\Generated_Source\PSoC4/ADC_VC.c **** * Summary:
 429:.\Generated_Source\PSoC4/ADC_VC.c **** *  Description: Checks for ADC end of conversion for the case one
 430:.\Generated_Source\PSoC4/ADC_VC.c **** *  channel and end of scan for the case of multiple channels. It acts
 431:.\Generated_Source\PSoC4/ADC_VC.c **** *  as a software version of the EOC. This function provides the
 432:.\Generated_Source\PSoC4/ADC_VC.c **** *  programmer with two options. In one mode this function
 433:.\Generated_Source\PSoC4/ADC_VC.c **** *  immediately returns with the conversion status. In the other mode,
 434:.\Generated_Source\PSoC4/ADC_VC.c **** *  the function does not return (blocking) until the conversion has
 435:.\Generated_Source\PSoC4/ADC_VC.c **** *  completed.
 436:.\Generated_Source\PSoC4/ADC_VC.c **** *
 437:.\Generated_Source\PSoC4/ADC_VC.c **** * Parameters:
 438:.\Generated_Source\PSoC4/ADC_VC.c **** *  ADC_RETURN_STATUS        -> Immediately returns conversion result status
 439:.\Generated_Source\PSoC4/ADC_VC.c **** *  ADC_WAIT_FOR_RESULT      -> Does not return until ADC complete
 440:.\Generated_Source\PSoC4/ADC_VC.c **** *  ADC_RETURN_STATUS_INJ    -> Immediately returns conversion result status
 441:.\Generated_Source\PSoC4/ADC_VC.c **** *                              for injection channel
 442:.\Generated_Source\PSoC4/ADC_VC.c **** *  ADC_WAIT_FOR_RESULT_INJ  -> Does not return until ADC completes injection
 443:.\Generated_Source\PSoC4/ADC_VC.c **** *                              channel conversion
 444:.\Generated_Source\PSoC4/ADC_VC.c **** *
 445:.\Generated_Source\PSoC4/ADC_VC.c **** * Return:
 446:.\Generated_Source\PSoC4/ADC_VC.c **** *  If a non-zero value is returned, the last conversion or scan has completed.
 447:.\Generated_Source\PSoC4/ADC_VC.c **** *  If the returned value is zero, the ADC is still in the process of a scan.
 448:.\Generated_Source\PSoC4/ADC_VC.c **** *
 449:.\Generated_Source\PSoC4/ADC_VC.c **** *******************************************************************************/
 450:.\Generated_Source\PSoC4/ADC_VC.c **** uint32 ADC_VC_IsEndConversion(uint32 retMode)
 451:.\Generated_Source\PSoC4/ADC_VC.c **** {
 427              		.loc 1 451 0
 428              		.cfi_startproc
 429              	.LVL25:
 430 0000 021C     		mov	r2, r0
 431              	.LVL26:
 452:.\Generated_Source\PSoC4/ADC_VC.c ****     uint32 status = 0u;
 453:.\Generated_Source\PSoC4/ADC_VC.c **** 
 454:.\Generated_Source\PSoC4/ADC_VC.c ****     if((retMode & (ADC_VC_RETURN_STATUS | ADC_VC_WAIT_FOR_RESULT)) != 0u)
 432              		.loc 1 454 0
 433 0002 8307     		lsl	r3, r0, #30
 434 0004 0CD0     		beq	.L33
 435              	.LVL27:
 436              	.L32:
 455:.\Generated_Source\PSoC4/ADC_VC.c ****     {
 456:.\Generated_Source\PSoC4/ADC_VC.c ****         do
 457:.\Generated_Source\PSoC4/ADC_VC.c ****         {
 458:.\Generated_Source\PSoC4/ADC_VC.c ****             status = ADC_VC_SAR_INTR_REG & ADC_VC_EOS_MASK;
 437              		.loc 1 458 0 discriminator 2
 438 0006 074B     		ldr	r3, .L34
 439 0008 1B68     		ldr	r3, [r3]
 440 000a 0120     		mov	r0, #1
 441 000c 1840     		and	r0, r3
 442              	.LVL28:
 459:.\Generated_Source\PSoC4/ADC_VC.c ****         }while((status == 0u) && ((retMode & ADC_VC_WAIT_FOR_RESULT) != 0u));
ARM GAS  C:\Users\Calin\AppData\Local\Temp\cckByqFG.s 			page 17


 443              		.loc 1 459 0 discriminator 2
 444 000e 01D1     		bne	.L31
 445              		.loc 1 459 0 is_stmt 0 discriminator 1
 446 0010 9307     		lsl	r3, r2, #30
 447 0012 F8D4     		bmi	.L32
 448              	.L31:
 460:.\Generated_Source\PSoC4/ADC_VC.c **** 
 461:.\Generated_Source\PSoC4/ADC_VC.c ****         if(status != 0u)
 449              		.loc 1 461 0 is_stmt 1
 450 0014 0028     		cmp	r0, #0
 451 0016 04D0     		beq	.L30
 462:.\Generated_Source\PSoC4/ADC_VC.c ****         {
 463:.\Generated_Source\PSoC4/ADC_VC.c ****             /* Clear EOS bit */
 464:.\Generated_Source\PSoC4/ADC_VC.c ****             ADC_VC_SAR_INTR_REG = ADC_VC_EOS_MASK;
 452              		.loc 1 464 0
 453 0018 0122     		mov	r2, #1
 454              	.LVL29:
 455 001a 024B     		ldr	r3, .L34
 456 001c 1A60     		str	r2, [r3]
 457 001e 00E0     		b	.L30
 458              	.LVL30:
 459              	.L33:
 452:.\Generated_Source\PSoC4/ADC_VC.c **** 
 460              		.loc 1 452 0
 461 0020 0020     		mov	r0, #0
 462              	.LVL31:
 463              	.L30:
 465:.\Generated_Source\PSoC4/ADC_VC.c ****         }
 466:.\Generated_Source\PSoC4/ADC_VC.c ****     }
 467:.\Generated_Source\PSoC4/ADC_VC.c **** 
 468:.\Generated_Source\PSoC4/ADC_VC.c ****     #if(ADC_VC_INJ_CHANNEL_ENABLED)
 469:.\Generated_Source\PSoC4/ADC_VC.c ****         if((retMode & (ADC_VC_RETURN_STATUS_INJ | ADC_VC_WAIT_FOR_RESULT_INJ)) != 0u)
 470:.\Generated_Source\PSoC4/ADC_VC.c ****         {
 471:.\Generated_Source\PSoC4/ADC_VC.c ****             do
 472:.\Generated_Source\PSoC4/ADC_VC.c ****             {
 473:.\Generated_Source\PSoC4/ADC_VC.c ****                 status |= ADC_VC_SAR_INTR_REG & ADC_VC_INJ_EOC_MASK;
 474:.\Generated_Source\PSoC4/ADC_VC.c ****             }while(((status & ADC_VC_INJ_EOC_MASK) == 0u) &&
 475:.\Generated_Source\PSoC4/ADC_VC.c ****                    ((retMode & ADC_VC_WAIT_FOR_RESULT_INJ) != 0u));
 476:.\Generated_Source\PSoC4/ADC_VC.c **** 
 477:.\Generated_Source\PSoC4/ADC_VC.c ****             if((status & ADC_VC_INJ_EOC_MASK) != 0u)
 478:.\Generated_Source\PSoC4/ADC_VC.c ****             {
 479:.\Generated_Source\PSoC4/ADC_VC.c ****                 /* Clear Injection EOS bit */
 480:.\Generated_Source\PSoC4/ADC_VC.c ****                 ADC_VC_SAR_INTR_REG = ADC_VC_INJ_EOC_MASK;
 481:.\Generated_Source\PSoC4/ADC_VC.c ****             }
 482:.\Generated_Source\PSoC4/ADC_VC.c ****         }
 483:.\Generated_Source\PSoC4/ADC_VC.c ****     #endif /* ADC_VC_INJ_CHANNEL_ENABLED */
 484:.\Generated_Source\PSoC4/ADC_VC.c **** 
 485:.\Generated_Source\PSoC4/ADC_VC.c ****     return (status);
 486:.\Generated_Source\PSoC4/ADC_VC.c **** }
 464              		.loc 1 486 0
 465              		@ sp needed
 466 0022 7047     		bx	lr
 467              	.L35:
 468              		.align	2
 469              	.L34:
 470 0024 10021A40 		.word	1075446288
 471              		.cfi_endproc
ARM GAS  C:\Users\Calin\AppData\Local\Temp\cckByqFG.s 			page 18


 472              	.LFE6:
 473              		.size	ADC_VC_IsEndConversion, .-ADC_VC_IsEndConversion
 474              		.section	.text.ADC_VC_GetResult16,"ax",%progbits
 475              		.align	2
 476              		.global	ADC_VC_GetResult16
 477              		.code	16
 478              		.thumb_func
 479              		.type	ADC_VC_GetResult16, %function
 480              	ADC_VC_GetResult16:
 481              	.LFB7:
 487:.\Generated_Source\PSoC4/ADC_VC.c **** 
 488:.\Generated_Source\PSoC4/ADC_VC.c **** 
 489:.\Generated_Source\PSoC4/ADC_VC.c **** /*******************************************************************************
 490:.\Generated_Source\PSoC4/ADC_VC.c **** * Function Name: ADC_VC_GetResult16
 491:.\Generated_Source\PSoC4/ADC_VC.c **** ********************************************************************************
 492:.\Generated_Source\PSoC4/ADC_VC.c **** *
 493:.\Generated_Source\PSoC4/ADC_VC.c **** * Summary:
 494:.\Generated_Source\PSoC4/ADC_VC.c **** *  Gets the data available in the SAR DATA register.
 495:.\Generated_Source\PSoC4/ADC_VC.c **** *
 496:.\Generated_Source\PSoC4/ADC_VC.c **** * Parameters:
 497:.\Generated_Source\PSoC4/ADC_VC.c **** *  chan: The ADC channel in which to return the result. The first channel
 498:.\Generated_Source\PSoC4/ADC_VC.c **** *  is 0 and the injection channel if enabled is the number of valid channels.
 499:.\Generated_Source\PSoC4/ADC_VC.c **** *
 500:.\Generated_Source\PSoC4/ADC_VC.c **** * Return:
 501:.\Generated_Source\PSoC4/ADC_VC.c **** *  Returns converted data as a signed 16-bit integer
 502:.\Generated_Source\PSoC4/ADC_VC.c **** *
 503:.\Generated_Source\PSoC4/ADC_VC.c **** *******************************************************************************/
 504:.\Generated_Source\PSoC4/ADC_VC.c **** int16 ADC_VC_GetResult16(uint32 chan)
 505:.\Generated_Source\PSoC4/ADC_VC.c **** {
 482              		.loc 1 505 0
 483              		.cfi_startproc
 484              	.LVL32:
 485 0000 10B5     		push	{r4, lr}
 486              		.cfi_def_cfa_offset 8
 487              		.cfi_offset 4, -8
 488              		.cfi_offset 14, -4
 489 0002 041E     		sub	r4, r0, #0
 506:.\Generated_Source\PSoC4/ADC_VC.c ****     uint32 result;
 507:.\Generated_Source\PSoC4/ADC_VC.c **** 
 508:.\Generated_Source\PSoC4/ADC_VC.c ****     /* Halt CPU in debug mode if channel is out of valid range */
 509:.\Generated_Source\PSoC4/ADC_VC.c ****     CYASSERT(chan < ADC_VC_TOTAL_CHANNELS_NUM);
 490              		.loc 1 509 0
 491 0004 012C     		cmp	r4, #1
 492 0006 02D9     		bls	.L37
 493              		.loc 1 509 0 is_stmt 0 discriminator 1
 494 0008 0020     		mov	r0, #0
 495              	.LVL33:
 496 000a FFF7FEFF 		bl	CyHalt
 497              	.LVL34:
 498              	.L37:
 510:.\Generated_Source\PSoC4/ADC_VC.c **** 
 511:.\Generated_Source\PSoC4/ADC_VC.c ****     if(chan < ADC_VC_SEQUENCED_CHANNELS_NUM)
 499              		.loc 1 511 0 is_stmt 1
 500 000e 012C     		cmp	r4, #1
 501 0010 07D8     		bhi	.L39
 512:.\Generated_Source\PSoC4/ADC_VC.c ****     {
 513:.\Generated_Source\PSoC4/ADC_VC.c ****         result = CY_GET_REG32((reg32 *)(ADC_VC_SAR_CHAN_RESULT_IND + (uint32)(chan << 2u))) &
ARM GAS  C:\Users\Calin\AppData\Local\Temp\cckByqFG.s 			page 19


 502              		.loc 1 513 0
 503 0012 A400     		lsl	r4, r4, #2
 504              	.LVL35:
 505 0014 044B     		ldr	r3, .L40
 506 0016 9C46     		mov	ip, r3
 507 0018 6444     		add	r4, r4, ip
 508 001a 2068     		ldr	r0, [r4]
 509 001c 0004     		lsl	r0, r0, #16
 510 001e 000C     		lsr	r0, r0, #16
 511              	.LVL36:
 512 0020 00E0     		b	.L38
 513              	.LVL37:
 514              	.L39:
 514:.\Generated_Source\PSoC4/ADC_VC.c ****                 ADC_VC_RESULT_MASK;
 515:.\Generated_Source\PSoC4/ADC_VC.c ****     }
 516:.\Generated_Source\PSoC4/ADC_VC.c ****     else
 517:.\Generated_Source\PSoC4/ADC_VC.c ****     {
 518:.\Generated_Source\PSoC4/ADC_VC.c ****         #if(ADC_VC_INJ_CHANNEL_ENABLED)
 519:.\Generated_Source\PSoC4/ADC_VC.c ****             result = ADC_VC_SAR_INJ_RESULT_REG & ADC_VC_RESULT_MASK;
 520:.\Generated_Source\PSoC4/ADC_VC.c ****         #else
 521:.\Generated_Source\PSoC4/ADC_VC.c ****             result = 0u;
 515              		.loc 1 521 0
 516 0022 0020     		mov	r0, #0
 517              	.LVL38:
 518              	.L38:
 522:.\Generated_Source\PSoC4/ADC_VC.c ****         #endif /* ADC_VC_INJ_CHANNEL_ENABLED */
 523:.\Generated_Source\PSoC4/ADC_VC.c ****     }
 524:.\Generated_Source\PSoC4/ADC_VC.c **** 
 525:.\Generated_Source\PSoC4/ADC_VC.c ****     return ( (int16)result );
 519              		.loc 1 525 0
 520 0024 00B2     		sxth	r0, r0
 521              	.LVL39:
 526:.\Generated_Source\PSoC4/ADC_VC.c **** }
 522              		.loc 1 526 0
 523              		@ sp needed
 524 0026 10BD     		pop	{r4, pc}
 525              	.L41:
 526              		.align	2
 527              	.L40:
 528 0028 80011A40 		.word	1075446144
 529              		.cfi_endproc
 530              	.LFE7:
 531              		.size	ADC_VC_GetResult16, .-ADC_VC_GetResult16
 532              		.section	.text.ADC_VC_SetChanMask,"ax",%progbits
 533              		.align	2
 534              		.global	ADC_VC_SetChanMask
 535              		.code	16
 536              		.thumb_func
 537              		.type	ADC_VC_SetChanMask, %function
 538              	ADC_VC_SetChanMask:
 539              	.LFB8:
 527:.\Generated_Source\PSoC4/ADC_VC.c **** 
 528:.\Generated_Source\PSoC4/ADC_VC.c **** 
 529:.\Generated_Source\PSoC4/ADC_VC.c **** /*******************************************************************************
 530:.\Generated_Source\PSoC4/ADC_VC.c **** * Function Name: ADC_VC_SetChanMask
 531:.\Generated_Source\PSoC4/ADC_VC.c **** ********************************************************************************
 532:.\Generated_Source\PSoC4/ADC_VC.c **** *
ARM GAS  C:\Users\Calin\AppData\Local\Temp\cckByqFG.s 			page 20


 533:.\Generated_Source\PSoC4/ADC_VC.c **** * Summary:
 534:.\Generated_Source\PSoC4/ADC_VC.c **** *  Sets the channel enable mask.
 535:.\Generated_Source\PSoC4/ADC_VC.c **** *
 536:.\Generated_Source\PSoC4/ADC_VC.c **** * Parameters:
 537:.\Generated_Source\PSoC4/ADC_VC.c **** *  mask: Sets which channels that will be
 538:.\Generated_Source\PSoC4/ADC_VC.c **** *  scanned. Setting bits for channels that do not exist will have no
 539:.\Generated_Source\PSoC4/ADC_VC.c **** *  effect. For example, if only 6 channels were enabled, setting a
 540:.\Generated_Source\PSoC4/ADC_VC.c **** *  mask of 0x0103 would only enable the last two channels (0 and 1).
 541:.\Generated_Source\PSoC4/ADC_VC.c **** *  This API will not enable the injection channel.
 542:.\Generated_Source\PSoC4/ADC_VC.c **** *  Examples: If the component is setup to sequence through 8
 543:.\Generated_Source\PSoC4/ADC_VC.c **** *  channels, a mask of 0x000F would enable channels 0, 1, 2, and 3.
 544:.\Generated_Source\PSoC4/ADC_VC.c **** *
 545:.\Generated_Source\PSoC4/ADC_VC.c **** * Return:
 546:.\Generated_Source\PSoC4/ADC_VC.c **** *  None.
 547:.\Generated_Source\PSoC4/ADC_VC.c **** *
 548:.\Generated_Source\PSoC4/ADC_VC.c **** *******************************************************************************/
 549:.\Generated_Source\PSoC4/ADC_VC.c **** void ADC_VC_SetChanMask(uint32 mask)
 550:.\Generated_Source\PSoC4/ADC_VC.c **** {
 540              		.loc 1 550 0
 541              		.cfi_startproc
 542              	.LVL40:
 551:.\Generated_Source\PSoC4/ADC_VC.c ****     ADC_VC_SAR_CHAN_EN_REG = mask & ADC_VC_MAX_CHANNELS_EN_MASK;
 543              		.loc 1 551 0
 544 0000 0323     		mov	r3, #3
 545 0002 1840     		and	r0, r3
 546              	.LVL41:
 547 0004 014B     		ldr	r3, .L43
 548 0006 1860     		str	r0, [r3]
 552:.\Generated_Source\PSoC4/ADC_VC.c **** }
 549              		.loc 1 552 0
 550              		@ sp needed
 551 0008 7047     		bx	lr
 552              	.L44:
 553 000a C046     		.align	2
 554              	.L43:
 555 000c 20001A40 		.word	1075445792
 556              		.cfi_endproc
 557              	.LFE8:
 558              		.size	ADC_VC_SetChanMask, .-ADC_VC_SetChanMask
 559              		.section	.text.ADC_VC_SetLowLimit,"ax",%progbits
 560              		.align	2
 561              		.global	ADC_VC_SetLowLimit
 562              		.code	16
 563              		.thumb_func
 564              		.type	ADC_VC_SetLowLimit, %function
 565              	ADC_VC_SetLowLimit:
 566              	.LFB9:
 553:.\Generated_Source\PSoC4/ADC_VC.c **** 
 554:.\Generated_Source\PSoC4/ADC_VC.c **** #if(ADC_VC_INJ_CHANNEL_ENABLED)
 555:.\Generated_Source\PSoC4/ADC_VC.c **** 
 556:.\Generated_Source\PSoC4/ADC_VC.c **** 
 557:.\Generated_Source\PSoC4/ADC_VC.c ****     /*******************************************************************************
 558:.\Generated_Source\PSoC4/ADC_VC.c ****     * Function Name: ADC_VC_EnableInjection
 559:.\Generated_Source\PSoC4/ADC_VC.c ****     ********************************************************************************
 560:.\Generated_Source\PSoC4/ADC_VC.c ****     *
 561:.\Generated_Source\PSoC4/ADC_VC.c ****     * Summary:
 562:.\Generated_Source\PSoC4/ADC_VC.c ****     *  Enables the injection channel for the next scan only.
ARM GAS  C:\Users\Calin\AppData\Local\Temp\cckByqFG.s 			page 21


 563:.\Generated_Source\PSoC4/ADC_VC.c ****     *
 564:.\Generated_Source\PSoC4/ADC_VC.c ****     * Parameters:
 565:.\Generated_Source\PSoC4/ADC_VC.c ****     *  None.
 566:.\Generated_Source\PSoC4/ADC_VC.c ****     *
 567:.\Generated_Source\PSoC4/ADC_VC.c ****     * Return:
 568:.\Generated_Source\PSoC4/ADC_VC.c ****     *  None.
 569:.\Generated_Source\PSoC4/ADC_VC.c ****     *
 570:.\Generated_Source\PSoC4/ADC_VC.c ****     *******************************************************************************/
 571:.\Generated_Source\PSoC4/ADC_VC.c ****     void ADC_VC_EnableInjection(void)
 572:.\Generated_Source\PSoC4/ADC_VC.c ****     {
 573:.\Generated_Source\PSoC4/ADC_VC.c ****         ADC_VC_SAR_INJ_CHAN_CONFIG_REG |= ADC_VC_INJ_CHAN_EN;
 574:.\Generated_Source\PSoC4/ADC_VC.c ****     }
 575:.\Generated_Source\PSoC4/ADC_VC.c **** 
 576:.\Generated_Source\PSoC4/ADC_VC.c **** #endif /* ADC_VC_INJ_CHANNEL_ENABLED */
 577:.\Generated_Source\PSoC4/ADC_VC.c **** 
 578:.\Generated_Source\PSoC4/ADC_VC.c **** 
 579:.\Generated_Source\PSoC4/ADC_VC.c **** /*******************************************************************************
 580:.\Generated_Source\PSoC4/ADC_VC.c **** * Function Name: ADC_VC_SetLowLimit
 581:.\Generated_Source\PSoC4/ADC_VC.c **** ********************************************************************************
 582:.\Generated_Source\PSoC4/ADC_VC.c **** *
 583:.\Generated_Source\PSoC4/ADC_VC.c **** * Summary:
 584:.\Generated_Source\PSoC4/ADC_VC.c **** *  Sets the low limit parameter for a limit condition.
 585:.\Generated_Source\PSoC4/ADC_VC.c **** *
 586:.\Generated_Source\PSoC4/ADC_VC.c **** * Parameters:
 587:.\Generated_Source\PSoC4/ADC_VC.c **** *  lowLimit: The low limit for a limit condition.
 588:.\Generated_Source\PSoC4/ADC_VC.c **** *
 589:.\Generated_Source\PSoC4/ADC_VC.c **** * Return:
 590:.\Generated_Source\PSoC4/ADC_VC.c **** *  None.
 591:.\Generated_Source\PSoC4/ADC_VC.c **** *
 592:.\Generated_Source\PSoC4/ADC_VC.c **** *******************************************************************************/
 593:.\Generated_Source\PSoC4/ADC_VC.c **** void ADC_VC_SetLowLimit(uint32 lowLimit)
 594:.\Generated_Source\PSoC4/ADC_VC.c **** {
 567              		.loc 1 594 0
 568              		.cfi_startproc
 569              	.LVL42:
 595:.\Generated_Source\PSoC4/ADC_VC.c ****     ADC_VC_SAR_RANGE_THRES_REG &= (uint32)(~ADC_VC_RANGE_LOW_MASK);
 570              		.loc 1 595 0
 571 0000 054A     		ldr	r2, .L46
 572 0002 1368     		ldr	r3, [r2]
 573 0004 1B0C     		lsr	r3, r3, #16
 574 0006 1B04     		lsl	r3, r3, #16
 575 0008 1360     		str	r3, [r2]
 596:.\Generated_Source\PSoC4/ADC_VC.c ****     ADC_VC_SAR_RANGE_THRES_REG |= lowLimit & ADC_VC_RANGE_LOW_MASK;
 576              		.loc 1 596 0
 577 000a 1368     		ldr	r3, [r2]
 578 000c 0004     		lsl	r0, r0, #16
 579              	.LVL43:
 580 000e 000C     		lsr	r0, r0, #16
 581 0010 1843     		orr	r0, r3
 582 0012 1060     		str	r0, [r2]
 597:.\Generated_Source\PSoC4/ADC_VC.c **** }
 583              		.loc 1 597 0
 584              		@ sp needed
 585 0014 7047     		bx	lr
 586              	.L47:
 587 0016 C046     		.align	2
 588              	.L46:
ARM GAS  C:\Users\Calin\AppData\Local\Temp\cckByqFG.s 			page 22


 589 0018 18001A40 		.word	1075445784
 590              		.cfi_endproc
 591              	.LFE9:
 592              		.size	ADC_VC_SetLowLimit, .-ADC_VC_SetLowLimit
 593              		.section	.text.ADC_VC_SetHighLimit,"ax",%progbits
 594              		.align	2
 595              		.global	ADC_VC_SetHighLimit
 596              		.code	16
 597              		.thumb_func
 598              		.type	ADC_VC_SetHighLimit, %function
 599              	ADC_VC_SetHighLimit:
 600              	.LFB10:
 598:.\Generated_Source\PSoC4/ADC_VC.c **** 
 599:.\Generated_Source\PSoC4/ADC_VC.c **** 
 600:.\Generated_Source\PSoC4/ADC_VC.c **** /*******************************************************************************
 601:.\Generated_Source\PSoC4/ADC_VC.c **** * Function Name: ADC_VC_SetHighLimit
 602:.\Generated_Source\PSoC4/ADC_VC.c **** ********************************************************************************
 603:.\Generated_Source\PSoC4/ADC_VC.c **** *
 604:.\Generated_Source\PSoC4/ADC_VC.c **** * Summary:
 605:.\Generated_Source\PSoC4/ADC_VC.c **** *  Sets the low limit parameter for a limit condition.
 606:.\Generated_Source\PSoC4/ADC_VC.c **** *
 607:.\Generated_Source\PSoC4/ADC_VC.c **** * Parameters:
 608:.\Generated_Source\PSoC4/ADC_VC.c **** *  highLimit: The high limit for a limit condition.
 609:.\Generated_Source\PSoC4/ADC_VC.c **** *
 610:.\Generated_Source\PSoC4/ADC_VC.c **** * Return:
 611:.\Generated_Source\PSoC4/ADC_VC.c **** *  None.
 612:.\Generated_Source\PSoC4/ADC_VC.c **** *
 613:.\Generated_Source\PSoC4/ADC_VC.c **** *******************************************************************************/
 614:.\Generated_Source\PSoC4/ADC_VC.c **** void ADC_VC_SetHighLimit(uint32 highLimit)
 615:.\Generated_Source\PSoC4/ADC_VC.c **** {
 601              		.loc 1 615 0
 602              		.cfi_startproc
 603              	.LVL44:
 616:.\Generated_Source\PSoC4/ADC_VC.c ****     ADC_VC_SAR_RANGE_THRES_REG &= (uint32)(~ADC_VC_RANGE_HIGH_MASK);
 604              		.loc 1 616 0
 605 0000 044A     		ldr	r2, .L49
 606 0002 1368     		ldr	r3, [r2]
 607 0004 1B04     		lsl	r3, r3, #16
 608 0006 1B0C     		lsr	r3, r3, #16
 609 0008 1360     		str	r3, [r2]
 617:.\Generated_Source\PSoC4/ADC_VC.c ****     ADC_VC_SAR_RANGE_THRES_REG |= (uint32)(highLimit << ADC_VC_RANGE_HIGH_OFFSET);
 610              		.loc 1 617 0
 611 000a 1368     		ldr	r3, [r2]
 612 000c 0004     		lsl	r0, r0, #16
 613              	.LVL45:
 614 000e 1843     		orr	r0, r3
 615 0010 1060     		str	r0, [r2]
 618:.\Generated_Source\PSoC4/ADC_VC.c **** }
 616              		.loc 1 618 0
 617              		@ sp needed
 618 0012 7047     		bx	lr
 619              	.L50:
 620              		.align	2
 621              	.L49:
 622 0014 18001A40 		.word	1075445784
 623              		.cfi_endproc
 624              	.LFE10:
ARM GAS  C:\Users\Calin\AppData\Local\Temp\cckByqFG.s 			page 23


 625              		.size	ADC_VC_SetHighLimit, .-ADC_VC_SetHighLimit
 626              		.section	.text.ADC_VC_SetLimitMask,"ax",%progbits
 627              		.align	2
 628              		.global	ADC_VC_SetLimitMask
 629              		.code	16
 630              		.thumb_func
 631              		.type	ADC_VC_SetLimitMask, %function
 632              	ADC_VC_SetLimitMask:
 633              	.LFB11:
 619:.\Generated_Source\PSoC4/ADC_VC.c **** 
 620:.\Generated_Source\PSoC4/ADC_VC.c **** 
 621:.\Generated_Source\PSoC4/ADC_VC.c **** /*******************************************************************************
 622:.\Generated_Source\PSoC4/ADC_VC.c **** * Function Name: ADC_VC_SetLimitMask
 623:.\Generated_Source\PSoC4/ADC_VC.c **** ********************************************************************************
 624:.\Generated_Source\PSoC4/ADC_VC.c **** *
 625:.\Generated_Source\PSoC4/ADC_VC.c **** * Summary:
 626:.\Generated_Source\PSoC4/ADC_VC.c **** *  Sets the channel limit condition mask.
 627:.\Generated_Source\PSoC4/ADC_VC.c **** *
 628:.\Generated_Source\PSoC4/ADC_VC.c **** * Parameters:
 629:.\Generated_Source\PSoC4/ADC_VC.c **** *  mask: Sets which channels that may cause a
 630:.\Generated_Source\PSoC4/ADC_VC.c **** *  limit condition interrupt. Setting bits for channels that do not exist
 631:.\Generated_Source\PSoC4/ADC_VC.c **** *  will have no effect. For example, if only 6 channels were enabled,
 632:.\Generated_Source\PSoC4/ADC_VC.c **** *  setting a mask of 0x0103 would only enable the last two channels (0 and 1).
 633:.\Generated_Source\PSoC4/ADC_VC.c **** *
 634:.\Generated_Source\PSoC4/ADC_VC.c **** * Return:
 635:.\Generated_Source\PSoC4/ADC_VC.c **** *  None.
 636:.\Generated_Source\PSoC4/ADC_VC.c **** *
 637:.\Generated_Source\PSoC4/ADC_VC.c **** *******************************************************************************/
 638:.\Generated_Source\PSoC4/ADC_VC.c **** void ADC_VC_SetLimitMask(uint32 mask)
 639:.\Generated_Source\PSoC4/ADC_VC.c **** {
 634              		.loc 1 639 0
 635              		.cfi_startproc
 636              	.LVL46:
 640:.\Generated_Source\PSoC4/ADC_VC.c ****     ADC_VC_SAR_RANGE_INTR_MASK_REG = mask & ADC_VC_MAX_CHANNELS_EN_MASK;
 637              		.loc 1 640 0
 638 0000 0323     		mov	r3, #3
 639 0002 1840     		and	r0, r3
 640              	.LVL47:
 641 0004 014B     		ldr	r3, .L52
 642 0006 1860     		str	r0, [r3]
 641:.\Generated_Source\PSoC4/ADC_VC.c **** }
 643              		.loc 1 641 0
 644              		@ sp needed
 645 0008 7047     		bx	lr
 646              	.L53:
 647 000a C046     		.align	2
 648              	.L52:
 649 000c 38021A40 		.word	1075446328
 650              		.cfi_endproc
 651              	.LFE11:
 652              		.size	ADC_VC_SetLimitMask, .-ADC_VC_SetLimitMask
 653              		.section	.text.ADC_VC_SetSatMask,"ax",%progbits
 654              		.align	2
 655              		.global	ADC_VC_SetSatMask
 656              		.code	16
 657              		.thumb_func
 658              		.type	ADC_VC_SetSatMask, %function
ARM GAS  C:\Users\Calin\AppData\Local\Temp\cckByqFG.s 			page 24


 659              	ADC_VC_SetSatMask:
 660              	.LFB12:
 642:.\Generated_Source\PSoC4/ADC_VC.c **** 
 643:.\Generated_Source\PSoC4/ADC_VC.c **** 
 644:.\Generated_Source\PSoC4/ADC_VC.c **** /*******************************************************************************
 645:.\Generated_Source\PSoC4/ADC_VC.c **** * Function Name: ADC_VC_SetSatMask
 646:.\Generated_Source\PSoC4/ADC_VC.c **** ********************************************************************************
 647:.\Generated_Source\PSoC4/ADC_VC.c **** *
 648:.\Generated_Source\PSoC4/ADC_VC.c **** * Summary:
 649:.\Generated_Source\PSoC4/ADC_VC.c **** *  Sets the channel saturation event mask.
 650:.\Generated_Source\PSoC4/ADC_VC.c **** *
 651:.\Generated_Source\PSoC4/ADC_VC.c **** * Parameters:
 652:.\Generated_Source\PSoC4/ADC_VC.c **** *  mask: Sets which channels that may cause a
 653:.\Generated_Source\PSoC4/ADC_VC.c **** *  saturation event interrupt. Setting bits for channels that do not exist
 654:.\Generated_Source\PSoC4/ADC_VC.c **** *  will have no effect. For example, if only 8 channels were enabled,
 655:.\Generated_Source\PSoC4/ADC_VC.c **** *  setting a mask of 0x01C0 would only enable two channels (6 and 7).
 656:.\Generated_Source\PSoC4/ADC_VC.c **** *
 657:.\Generated_Source\PSoC4/ADC_VC.c **** * Return:
 658:.\Generated_Source\PSoC4/ADC_VC.c **** *  None.
 659:.\Generated_Source\PSoC4/ADC_VC.c **** *
 660:.\Generated_Source\PSoC4/ADC_VC.c **** *******************************************************************************/
 661:.\Generated_Source\PSoC4/ADC_VC.c **** void ADC_VC_SetSatMask(uint32 mask)
 662:.\Generated_Source\PSoC4/ADC_VC.c **** {
 661              		.loc 1 662 0
 662              		.cfi_startproc
 663              	.LVL48:
 663:.\Generated_Source\PSoC4/ADC_VC.c ****     ADC_VC_SAR_SATURATE_INTR_MASK_REG = mask & ADC_VC_MAX_CHANNELS_EN_MASK;
 664              		.loc 1 663 0
 665 0000 0323     		mov	r3, #3
 666 0002 1840     		and	r0, r3
 667              	.LVL49:
 668 0004 014B     		ldr	r3, .L55
 669 0006 1860     		str	r0, [r3]
 664:.\Generated_Source\PSoC4/ADC_VC.c **** }
 670              		.loc 1 664 0
 671              		@ sp needed
 672 0008 7047     		bx	lr
 673              	.L56:
 674 000a C046     		.align	2
 675              	.L55:
 676 000c 28021A40 		.word	1075446312
 677              		.cfi_endproc
 678              	.LFE12:
 679              		.size	ADC_VC_SetSatMask, .-ADC_VC_SetSatMask
 680              		.section	.text.ADC_VC_SetOffset,"ax",%progbits
 681              		.align	2
 682              		.global	ADC_VC_SetOffset
 683              		.code	16
 684              		.thumb_func
 685              		.type	ADC_VC_SetOffset, %function
 686              	ADC_VC_SetOffset:
 687              	.LFB13:
 665:.\Generated_Source\PSoC4/ADC_VC.c **** 
 666:.\Generated_Source\PSoC4/ADC_VC.c **** 
 667:.\Generated_Source\PSoC4/ADC_VC.c **** /*******************************************************************************
 668:.\Generated_Source\PSoC4/ADC_VC.c **** * Function Name: ADC_VC_SetOffset
 669:.\Generated_Source\PSoC4/ADC_VC.c **** ********************************************************************************
ARM GAS  C:\Users\Calin\AppData\Local\Temp\cckByqFG.s 			page 25


 670:.\Generated_Source\PSoC4/ADC_VC.c **** *
 671:.\Generated_Source\PSoC4/ADC_VC.c **** * Summary:
 672:.\Generated_Source\PSoC4/ADC_VC.c **** *   Description: Sets the ADC offset which is used by the functions
 673:.\Generated_Source\PSoC4/ADC_VC.c **** *   ADC_CountsTo_uVolts, ADC_CountsTo_mVolts and ADC_CountsTo_Volts
 674:.\Generated_Source\PSoC4/ADC_VC.c **** *   to substract the offset from the given reading
 675:.\Generated_Source\PSoC4/ADC_VC.c **** *   before calculating the voltage conversion.
 676:.\Generated_Source\PSoC4/ADC_VC.c **** *
 677:.\Generated_Source\PSoC4/ADC_VC.c **** * Parameters:
 678:.\Generated_Source\PSoC4/ADC_VC.c **** *  chan: ADC channel number.
 679:.\Generated_Source\PSoC4/ADC_VC.c **** *  offset: This value is a measured value when the
 680:.\Generated_Source\PSoC4/ADC_VC.c **** *          inputs are shorted or connected to the same input voltage.
 681:.\Generated_Source\PSoC4/ADC_VC.c **** *
 682:.\Generated_Source\PSoC4/ADC_VC.c **** * Return:
 683:.\Generated_Source\PSoC4/ADC_VC.c **** *  None.
 684:.\Generated_Source\PSoC4/ADC_VC.c **** *
 685:.\Generated_Source\PSoC4/ADC_VC.c **** * Global variables:
 686:.\Generated_Source\PSoC4/ADC_VC.c **** *  ADC_VC_Offset:  Modified to set the user provided offset.
 687:.\Generated_Source\PSoC4/ADC_VC.c **** *
 688:.\Generated_Source\PSoC4/ADC_VC.c **** *******************************************************************************/
 689:.\Generated_Source\PSoC4/ADC_VC.c **** void ADC_VC_SetOffset(uint32 chan, int16 offset)
 690:.\Generated_Source\PSoC4/ADC_VC.c **** {
 688              		.loc 1 690 0
 689              		.cfi_startproc
 690              	.LVL50:
 691 0000 38B5     		push	{r3, r4, r5, lr}
 692              		.cfi_def_cfa_offset 16
 693              		.cfi_offset 3, -16
 694              		.cfi_offset 4, -12
 695              		.cfi_offset 5, -8
 696              		.cfi_offset 14, -4
 697 0002 041C     		mov	r4, r0
 698 0004 0D1C     		mov	r5, r1
 691:.\Generated_Source\PSoC4/ADC_VC.c ****     /* Halt CPU in debug mode if channel is out of valid range */
 692:.\Generated_Source\PSoC4/ADC_VC.c ****     CYASSERT(chan < ADC_VC_TOTAL_CHANNELS_NUM);
 699              		.loc 1 692 0
 700 0006 0128     		cmp	r0, #1
 701 0008 02D9     		bls	.L58
 702              		.loc 1 692 0 is_stmt 0 discriminator 1
 703 000a 0020     		mov	r0, #0
 704              	.LVL51:
 705 000c FFF7FEFF 		bl	CyHalt
 706              	.LVL52:
 707              	.L58:
 693:.\Generated_Source\PSoC4/ADC_VC.c **** 
 694:.\Generated_Source\PSoC4/ADC_VC.c ****     ADC_VC_offset[chan] = offset;
 708              		.loc 1 694 0 is_stmt 1
 709 0010 6400     		lsl	r4, r4, #1
 710              	.LVL53:
 711 0012 014B     		ldr	r3, .L59
 712 0014 E552     		strh	r5, [r4, r3]
 695:.\Generated_Source\PSoC4/ADC_VC.c **** }
 713              		.loc 1 695 0
 714              		@ sp needed
 715 0016 38BD     		pop	{r3, r4, r5, pc}
 716              	.L60:
 717              		.align	2
 718              	.L59:
ARM GAS  C:\Users\Calin\AppData\Local\Temp\cckByqFG.s 			page 26


 719 0018 00000000 		.word	ADC_VC_offset
 720              		.cfi_endproc
 721              	.LFE13:
 722              		.size	ADC_VC_SetOffset, .-ADC_VC_SetOffset
 723              		.section	.text.ADC_VC_SetGain,"ax",%progbits
 724              		.align	2
 725              		.global	ADC_VC_SetGain
 726              		.code	16
 727              		.thumb_func
 728              		.type	ADC_VC_SetGain, %function
 729              	ADC_VC_SetGain:
 730              	.LFB14:
 696:.\Generated_Source\PSoC4/ADC_VC.c **** 
 697:.\Generated_Source\PSoC4/ADC_VC.c **** 
 698:.\Generated_Source\PSoC4/ADC_VC.c **** /*******************************************************************************
 699:.\Generated_Source\PSoC4/ADC_VC.c **** * Function Name: ADC_VC_SetGain
 700:.\Generated_Source\PSoC4/ADC_VC.c **** ********************************************************************************
 701:.\Generated_Source\PSoC4/ADC_VC.c **** *
 702:.\Generated_Source\PSoC4/ADC_VC.c **** * Summary:
 703:.\Generated_Source\PSoC4/ADC_VC.c **** *  Description: Sets the ADC gain in counts per 10 volt for the voltage
 704:.\Generated_Source\PSoC4/ADC_VC.c **** *  conversion functions below. This value is set by default by the
 705:.\Generated_Source\PSoC4/ADC_VC.c **** *  reference and input range settings. It should only be used to further
 706:.\Generated_Source\PSoC4/ADC_VC.c **** *  calibrate the ADC with a known input or if an external reference is
 707:.\Generated_Source\PSoC4/ADC_VC.c **** *  used. Affects the ADC_CountsTo_uVolts, ADC_CountsTo_mVolts
 708:.\Generated_Source\PSoC4/ADC_VC.c **** *  and ADC_CountsTo_Volts functions by supplying the correct
 709:.\Generated_Source\PSoC4/ADC_VC.c **** *  conversion between ADC counts and voltage.
 710:.\Generated_Source\PSoC4/ADC_VC.c **** *
 711:.\Generated_Source\PSoC4/ADC_VC.c **** * Parameters:
 712:.\Generated_Source\PSoC4/ADC_VC.c **** *  chan: ADC channel number.
 713:.\Generated_Source\PSoC4/ADC_VC.c **** *  adcGain: ADC gain in counts per 10 volts.
 714:.\Generated_Source\PSoC4/ADC_VC.c **** *
 715:.\Generated_Source\PSoC4/ADC_VC.c **** * Return:
 716:.\Generated_Source\PSoC4/ADC_VC.c **** *  None.
 717:.\Generated_Source\PSoC4/ADC_VC.c **** *
 718:.\Generated_Source\PSoC4/ADC_VC.c **** * Global variables:
 719:.\Generated_Source\PSoC4/ADC_VC.c **** *  ADC_VC_CountsPer10Volt:  modified to set the ADC gain in counts
 720:.\Generated_Source\PSoC4/ADC_VC.c **** *   per 10 volt.
 721:.\Generated_Source\PSoC4/ADC_VC.c **** *
 722:.\Generated_Source\PSoC4/ADC_VC.c **** *******************************************************************************/
 723:.\Generated_Source\PSoC4/ADC_VC.c **** void ADC_VC_SetGain(uint32 chan, int32 adcGain)
 724:.\Generated_Source\PSoC4/ADC_VC.c **** {
 731              		.loc 1 724 0
 732              		.cfi_startproc
 733              	.LVL54:
 734 0000 38B5     		push	{r3, r4, r5, lr}
 735              		.cfi_def_cfa_offset 16
 736              		.cfi_offset 3, -16
 737              		.cfi_offset 4, -12
 738              		.cfi_offset 5, -8
 739              		.cfi_offset 14, -4
 740 0002 041C     		mov	r4, r0
 741 0004 0D1C     		mov	r5, r1
 725:.\Generated_Source\PSoC4/ADC_VC.c ****     /* Halt CPU in debug mode if channel is out of valid range */
 726:.\Generated_Source\PSoC4/ADC_VC.c ****     CYASSERT(chan < ADC_VC_TOTAL_CHANNELS_NUM);
 742              		.loc 1 726 0
 743 0006 0128     		cmp	r0, #1
 744 0008 02D9     		bls	.L62
ARM GAS  C:\Users\Calin\AppData\Local\Temp\cckByqFG.s 			page 27


 745              		.loc 1 726 0 is_stmt 0 discriminator 1
 746 000a 0020     		mov	r0, #0
 747              	.LVL55:
 748 000c FFF7FEFF 		bl	CyHalt
 749              	.LVL56:
 750              	.L62:
 727:.\Generated_Source\PSoC4/ADC_VC.c **** 
 728:.\Generated_Source\PSoC4/ADC_VC.c ****     ADC_VC_countsPer10Volt[chan] = adcGain;
 751              		.loc 1 728 0 is_stmt 1
 752 0010 A400     		lsl	r4, r4, #2
 753              	.LVL57:
 754 0012 014B     		ldr	r3, .L63
 755 0014 E550     		str	r5, [r4, r3]
 729:.\Generated_Source\PSoC4/ADC_VC.c **** }
 756              		.loc 1 729 0
 757              		@ sp needed
 758              	.LVL58:
 759 0016 38BD     		pop	{r3, r4, r5, pc}
 760              	.L64:
 761              		.align	2
 762              	.L63:
 763 0018 00000000 		.word	ADC_VC_countsPer10Volt
 764              		.cfi_endproc
 765              	.LFE14:
 766              		.size	ADC_VC_SetGain, .-ADC_VC_SetGain
 767              		.global	__aeabi_idiv
 768              		.section	.text.ADC_VC_CountsTo_mVolts,"ax",%progbits
 769              		.align	2
 770              		.global	ADC_VC_CountsTo_mVolts
 771              		.code	16
 772              		.thumb_func
 773              		.type	ADC_VC_CountsTo_mVolts, %function
 774              	ADC_VC_CountsTo_mVolts:
 775              	.LFB15:
 730:.\Generated_Source\PSoC4/ADC_VC.c **** 
 731:.\Generated_Source\PSoC4/ADC_VC.c **** 
 732:.\Generated_Source\PSoC4/ADC_VC.c **** #if(ADC_VC_DEFAULT_JUSTIFICATION_SEL == ADC_VC__RIGHT)
 733:.\Generated_Source\PSoC4/ADC_VC.c **** 
 734:.\Generated_Source\PSoC4/ADC_VC.c **** 
 735:.\Generated_Source\PSoC4/ADC_VC.c ****     /*******************************************************************************
 736:.\Generated_Source\PSoC4/ADC_VC.c ****     * Function Name: ADC_VC_CountsTo_mVolts
 737:.\Generated_Source\PSoC4/ADC_VC.c ****     ********************************************************************************
 738:.\Generated_Source\PSoC4/ADC_VC.c ****     *
 739:.\Generated_Source\PSoC4/ADC_VC.c ****     * Summary:
 740:.\Generated_Source\PSoC4/ADC_VC.c ****     *  This function converts ADC counts to mVolts
 741:.\Generated_Source\PSoC4/ADC_VC.c ****     *  This function is not available when left data format justification selected.
 742:.\Generated_Source\PSoC4/ADC_VC.c ****     *
 743:.\Generated_Source\PSoC4/ADC_VC.c ****     * Parameters:
 744:.\Generated_Source\PSoC4/ADC_VC.c ****     *  chan: The ADC channel number.
 745:.\Generated_Source\PSoC4/ADC_VC.c ****     *  adcCounts: Result from the ADC conversion
 746:.\Generated_Source\PSoC4/ADC_VC.c ****     *
 747:.\Generated_Source\PSoC4/ADC_VC.c ****     * Return:
 748:.\Generated_Source\PSoC4/ADC_VC.c ****     *  Results in mVolts
 749:.\Generated_Source\PSoC4/ADC_VC.c ****     *
 750:.\Generated_Source\PSoC4/ADC_VC.c ****     * Global variables:
 751:.\Generated_Source\PSoC4/ADC_VC.c ****     *  ADC_VC_countsPer10Volt:  used to convert ADC counts to mVolts.
 752:.\Generated_Source\PSoC4/ADC_VC.c ****     *  ADC_VC_Offset:  Used as the offset while converting ADC counts
ARM GAS  C:\Users\Calin\AppData\Local\Temp\cckByqFG.s 			page 28


 753:.\Generated_Source\PSoC4/ADC_VC.c ****     *   to mVolts.
 754:.\Generated_Source\PSoC4/ADC_VC.c ****     *
 755:.\Generated_Source\PSoC4/ADC_VC.c ****     *******************************************************************************/
 756:.\Generated_Source\PSoC4/ADC_VC.c ****     int16 ADC_VC_CountsTo_mVolts(uint32 chan, int16 adcCounts)
 757:.\Generated_Source\PSoC4/ADC_VC.c ****     {
 776              		.loc 1 757 0
 777              		.cfi_startproc
 778              	.LVL59:
 779 0000 38B5     		push	{r3, r4, r5, lr}
 780              		.cfi_def_cfa_offset 16
 781              		.cfi_offset 3, -16
 782              		.cfi_offset 4, -12
 783              		.cfi_offset 5, -8
 784              		.cfi_offset 14, -4
 785 0002 041C     		mov	r4, r0
 786 0004 0D1C     		mov	r5, r1
 758:.\Generated_Source\PSoC4/ADC_VC.c ****         int16 mVolts;
 759:.\Generated_Source\PSoC4/ADC_VC.c **** 
 760:.\Generated_Source\PSoC4/ADC_VC.c ****         /* Halt CPU in debug mode if channel is out of valid range */
 761:.\Generated_Source\PSoC4/ADC_VC.c ****         CYASSERT(chan < ADC_VC_TOTAL_CHANNELS_NUM);
 787              		.loc 1 761 0
 788 0006 0128     		cmp	r0, #1
 789 0008 02D9     		bls	.L66
 790              		.loc 1 761 0 is_stmt 0 discriminator 1
 791 000a 0020     		mov	r0, #0
 792              	.LVL60:
 793 000c FFF7FEFF 		bl	CyHalt
 794              	.LVL61:
 795              	.L66:
 762:.\Generated_Source\PSoC4/ADC_VC.c **** 
 763:.\Generated_Source\PSoC4/ADC_VC.c ****         /* Divide the adcCount when accumulate averaging mode selected */
 764:.\Generated_Source\PSoC4/ADC_VC.c ****         #if(ADC_VC_DEFAULT_AVG_MODE == ADC_VC__ACCUMULATE)
 765:.\Generated_Source\PSoC4/ADC_VC.c ****             if((ADC_VC_channelsConfig[chan] & ADC_VC_AVERAGING_EN) != 0u)
 766:.\Generated_Source\PSoC4/ADC_VC.c ****             {
 767:.\Generated_Source\PSoC4/ADC_VC.c ****                 adcCounts /= ADC_VC_DEFAULT_AVG_SAMPLES_DIV;
 768:.\Generated_Source\PSoC4/ADC_VC.c ****             }
 769:.\Generated_Source\PSoC4/ADC_VC.c ****         #endif /* ADC_VC_DEFAULT_AVG_MODE == ADC_VC__ACCUMULATE */
 770:.\Generated_Source\PSoC4/ADC_VC.c **** 
 771:.\Generated_Source\PSoC4/ADC_VC.c ****         /* Subtract ADC offset */
 772:.\Generated_Source\PSoC4/ADC_VC.c ****         adcCounts -= ADC_VC_offset[chan];
 796              		.loc 1 772 0 is_stmt 1
 797 0010 6300     		lsl	r3, r4, #1
 798 0012 0F4A     		ldr	r2, .L69
 799 0014 995A     		ldrh	r1, [r3, r2]
 800 0016 691A     		sub	r1, r5, r1
 801 0018 09B2     		sxth	r1, r1
 802              	.LVL62:
 773:.\Generated_Source\PSoC4/ADC_VC.c **** 
 774:.\Generated_Source\PSoC4/ADC_VC.c ****         mVolts = (int16)((((int32)adcCounts * ADC_VC_10MV_COUNTS) + ( (adcCounts > 0) ?
 803              		.loc 1 774 0
 804 001a 0E48     		ldr	r0, .L69+4
 805 001c 021C     		mov	r2, r0
 806 001e 4A43     		mul	r2, r1
 775:.\Generated_Source\PSoC4/ADC_VC.c ****                  (ADC_VC_countsPer10Volt[chan] / 2) : (-(ADC_VC_countsPer10Volt[chan] / 2)) ))
 807              		.loc 1 775 0
 808 0020 0029     		cmp	r1, #0
 809 0022 06DD     		ble	.L67
ARM GAS  C:\Users\Calin\AppData\Local\Temp\cckByqFG.s 			page 29


 810              		.loc 1 775 0 is_stmt 0 discriminator 1
 811 0024 A300     		lsl	r3, r4, #2
 812 0026 0C49     		ldr	r1, .L69+8
 813              	.LVL63:
 814 0028 5B58     		ldr	r3, [r3, r1]
 815 002a D80F     		lsr	r0, r3, #31
 816 002c C018     		add	r0, r0, r3
 817 002e 4310     		asr	r3, r0, #1
 818 0030 06E0     		b	.L68
 819              	.LVL64:
 820              	.L67:
 821              		.loc 1 775 0 discriminator 2
 822 0032 A300     		lsl	r3, r4, #2
 823 0034 0849     		ldr	r1, .L69+8
 824              	.LVL65:
 825 0036 5B58     		ldr	r3, [r3, r1]
 826 0038 D80F     		lsr	r0, r3, #31
 827 003a C318     		add	r3, r0, r3
 828 003c 5B10     		asr	r3, r3, #1
 829 003e 5B42     		neg	r3, r3
 830              	.L68:
 774:.\Generated_Source\PSoC4/ADC_VC.c ****                  (ADC_VC_countsPer10Volt[chan] / 2) : (-(ADC_VC_countsPer10Volt[chan] / 2)) ))
 831              		.loc 1 774 0 is_stmt 1
 832 0040 D018     		add	r0, r2, r3
 776:.\Generated_Source\PSoC4/ADC_VC.c ****                  / ADC_VC_countsPer10Volt[chan]);
 833              		.loc 1 776 0
 834 0042 A400     		lsl	r4, r4, #2
 835              	.LVL66:
 836 0044 044B     		ldr	r3, .L69+8
 837 0046 E158     		ldr	r1, [r4, r3]
 838 0048 FFF7FEFF 		bl	__aeabi_idiv
 839              	.LVL67:
 777:.\Generated_Source\PSoC4/ADC_VC.c **** 
 778:.\Generated_Source\PSoC4/ADC_VC.c ****         return( mVolts );
 840              		.loc 1 778 0
 841 004c 00B2     		sxth	r0, r0
 779:.\Generated_Source\PSoC4/ADC_VC.c ****     }
 842              		.loc 1 779 0
 843              		@ sp needed
 844 004e 38BD     		pop	{r3, r4, r5, pc}
 845              	.L70:
 846              		.align	2
 847              	.L69:
 848 0050 00000000 		.word	ADC_VC_offset
 849 0054 10270000 		.word	10000
 850 0058 00000000 		.word	ADC_VC_countsPer10Volt
 851              		.cfi_endproc
 852              	.LFE15:
 853              		.size	ADC_VC_CountsTo_mVolts, .-ADC_VC_CountsTo_mVolts
 854              		.global	__aeabi_lmul
 855              		.global	__aeabi_ldivmod
 856              		.section	.text.ADC_VC_CountsTo_uVolts,"ax",%progbits
 857              		.align	2
 858              		.global	ADC_VC_CountsTo_uVolts
 859              		.code	16
 860              		.thumb_func
 861              		.type	ADC_VC_CountsTo_uVolts, %function
ARM GAS  C:\Users\Calin\AppData\Local\Temp\cckByqFG.s 			page 30


 862              	ADC_VC_CountsTo_uVolts:
 863              	.LFB16:
 780:.\Generated_Source\PSoC4/ADC_VC.c **** 
 781:.\Generated_Source\PSoC4/ADC_VC.c **** 
 782:.\Generated_Source\PSoC4/ADC_VC.c ****     /*******************************************************************************
 783:.\Generated_Source\PSoC4/ADC_VC.c ****     * Function Name: ADC_VC_CountsTo_uVolts
 784:.\Generated_Source\PSoC4/ADC_VC.c ****     ********************************************************************************
 785:.\Generated_Source\PSoC4/ADC_VC.c ****     *
 786:.\Generated_Source\PSoC4/ADC_VC.c ****     * Summary:
 787:.\Generated_Source\PSoC4/ADC_VC.c ****     *  This function converts ADC counts to micro Volts
 788:.\Generated_Source\PSoC4/ADC_VC.c ****     *  This function is not available when left data format justification selected.
 789:.\Generated_Source\PSoC4/ADC_VC.c ****     *
 790:.\Generated_Source\PSoC4/ADC_VC.c ****     * Parameters:
 791:.\Generated_Source\PSoC4/ADC_VC.c ****     *  chan: The ADC channel number.
 792:.\Generated_Source\PSoC4/ADC_VC.c ****     *  adcCounts: Result from the ADC conversion
 793:.\Generated_Source\PSoC4/ADC_VC.c ****     *
 794:.\Generated_Source\PSoC4/ADC_VC.c ****     * Return:
 795:.\Generated_Source\PSoC4/ADC_VC.c ****     *  Results in uVolts
 796:.\Generated_Source\PSoC4/ADC_VC.c ****     *
 797:.\Generated_Source\PSoC4/ADC_VC.c ****     * Global variables:
 798:.\Generated_Source\PSoC4/ADC_VC.c ****     *  ADC_VC_countsPer10Volt:  used to convert ADC counts to uVolts.
 799:.\Generated_Source\PSoC4/ADC_VC.c ****     *  ADC_VC_Offset:  Used as the offset while converting ADC counts
 800:.\Generated_Source\PSoC4/ADC_VC.c ****     *   to mVolts.
 801:.\Generated_Source\PSoC4/ADC_VC.c ****     *
 802:.\Generated_Source\PSoC4/ADC_VC.c ****     * Theory:
 803:.\Generated_Source\PSoC4/ADC_VC.c ****     *  Care must be taken to not exceed the maximum value for a 31 bit signed
 804:.\Generated_Source\PSoC4/ADC_VC.c ****     *  number in the conversion to uVolts and at the same time not loose
 805:.\Generated_Source\PSoC4/ADC_VC.c ****     *  resolution.
 806:.\Generated_Source\PSoC4/ADC_VC.c ****     *  To convert adcCounts to microVolts it is required to be multiplied
 807:.\Generated_Source\PSoC4/ADC_VC.c ****     *  on 10 million and later divide on gain in counts per 10V.
 808:.\Generated_Source\PSoC4/ADC_VC.c ****     *
 809:.\Generated_Source\PSoC4/ADC_VC.c ****     *******************************************************************************/
 810:.\Generated_Source\PSoC4/ADC_VC.c ****     int32 ADC_VC_CountsTo_uVolts(uint32 chan, int16 adcCounts)
 811:.\Generated_Source\PSoC4/ADC_VC.c ****     {
 864              		.loc 1 811 0
 865              		.cfi_startproc
 866              	.LVL68:
 867 0000 38B5     		push	{r3, r4, r5, lr}
 868              		.cfi_def_cfa_offset 16
 869              		.cfi_offset 3, -16
 870              		.cfi_offset 4, -12
 871              		.cfi_offset 5, -8
 872              		.cfi_offset 14, -4
 873 0002 051C     		mov	r5, r0
 874 0004 0C1C     		mov	r4, r1
 812:.\Generated_Source\PSoC4/ADC_VC.c ****         int64 uVolts;
 813:.\Generated_Source\PSoC4/ADC_VC.c **** 
 814:.\Generated_Source\PSoC4/ADC_VC.c ****         /* Halt CPU in debug mode if channel is out of valid range */
 815:.\Generated_Source\PSoC4/ADC_VC.c ****         CYASSERT(chan < ADC_VC_TOTAL_CHANNELS_NUM);
 875              		.loc 1 815 0
 876 0006 0128     		cmp	r0, #1
 877 0008 02D9     		bls	.L72
 878              		.loc 1 815 0 is_stmt 0 discriminator 1
 879 000a 0020     		mov	r0, #0
 880              	.LVL69:
 881 000c FFF7FEFF 		bl	CyHalt
 882              	.LVL70:
ARM GAS  C:\Users\Calin\AppData\Local\Temp\cckByqFG.s 			page 31


 883              	.L72:
 816:.\Generated_Source\PSoC4/ADC_VC.c **** 
 817:.\Generated_Source\PSoC4/ADC_VC.c ****         /* Divide the adcCount when accumulate averaging mode selected */
 818:.\Generated_Source\PSoC4/ADC_VC.c ****         #if(ADC_VC_DEFAULT_AVG_MODE == ADC_VC__ACCUMULATE)
 819:.\Generated_Source\PSoC4/ADC_VC.c ****             if((ADC_VC_channelsConfig[chan] & ADC_VC_AVERAGING_EN) != 0u)
 820:.\Generated_Source\PSoC4/ADC_VC.c ****             {
 821:.\Generated_Source\PSoC4/ADC_VC.c ****                 adcCounts /= ADC_VC_DEFAULT_AVG_SAMPLES_DIV;
 822:.\Generated_Source\PSoC4/ADC_VC.c ****             }
 823:.\Generated_Source\PSoC4/ADC_VC.c ****         #endif /* ADC_VC_DEFAULT_AVG_MODE == ADC_VC__ACCUMULATE */
 824:.\Generated_Source\PSoC4/ADC_VC.c **** 
 825:.\Generated_Source\PSoC4/ADC_VC.c ****         /* Subtract ADC offset */
 826:.\Generated_Source\PSoC4/ADC_VC.c ****         adcCounts -= ADC_VC_offset[chan];
 884              		.loc 1 826 0 is_stmt 1
 885 0010 6A00     		lsl	r2, r5, #1
 886 0012 084B     		ldr	r3, .L73
 887 0014 D05A     		ldrh	r0, [r2, r3]
 888 0016 201A     		sub	r0, r4, r0
 889 0018 00B2     		sxth	r0, r0
 890              	.LVL71:
 827:.\Generated_Source\PSoC4/ADC_VC.c **** 
 828:.\Generated_Source\PSoC4/ADC_VC.c ****         uVolts = ((int64)adcCounts * ADC_VC_10UV_COUNTS) / ADC_VC_countsPer10Volt[chan];
 891              		.loc 1 828 0
 892 001a C117     		asr	r1, r0, #31
 893 001c 064A     		ldr	r2, .L73+4
 894 001e 0023     		mov	r3, #0
 895 0020 FFF7FEFF 		bl	__aeabi_lmul
 896              	.LVL72:
 897 0024 AD00     		lsl	r5, r5, #2
 898              	.LVL73:
 899 0026 054B     		ldr	r3, .L73+8
 900 0028 EA58     		ldr	r2, [r5, r3]
 901 002a D317     		asr	r3, r2, #31
 902 002c FFF7FEFF 		bl	__aeabi_ldivmod
 903              	.LVL74:
 829:.\Generated_Source\PSoC4/ADC_VC.c **** 
 830:.\Generated_Source\PSoC4/ADC_VC.c ****         return( (int32)uVolts );
 831:.\Generated_Source\PSoC4/ADC_VC.c ****     }
 904              		.loc 1 831 0
 905              		@ sp needed
 906 0030 38BD     		pop	{r3, r4, r5, pc}
 907              	.L74:
 908 0032 C046     		.align	2
 909              	.L73:
 910 0034 00000000 		.word	ADC_VC_offset
 911 0038 80969800 		.word	10000000
 912 003c 00000000 		.word	ADC_VC_countsPer10Volt
 913              		.cfi_endproc
 914              	.LFE16:
 915              		.size	ADC_VC_CountsTo_uVolts, .-ADC_VC_CountsTo_uVolts
 916              		.global	__aeabi_i2f
 917              		.global	__aeabi_fmul
 918              		.global	__aeabi_fdiv
 919              		.section	.text.ADC_VC_CountsTo_Volts,"ax",%progbits
 920              		.align	2
 921              		.global	ADC_VC_CountsTo_Volts
 922              		.code	16
 923              		.thumb_func
ARM GAS  C:\Users\Calin\AppData\Local\Temp\cckByqFG.s 			page 32


 924              		.type	ADC_VC_CountsTo_Volts, %function
 925              	ADC_VC_CountsTo_Volts:
 926              	.LFB17:
 832:.\Generated_Source\PSoC4/ADC_VC.c **** 
 833:.\Generated_Source\PSoC4/ADC_VC.c **** 
 834:.\Generated_Source\PSoC4/ADC_VC.c ****     /*******************************************************************************
 835:.\Generated_Source\PSoC4/ADC_VC.c ****     * Function Name: ADC_VC_CountsTo_Volts
 836:.\Generated_Source\PSoC4/ADC_VC.c ****     ********************************************************************************
 837:.\Generated_Source\PSoC4/ADC_VC.c ****     *
 838:.\Generated_Source\PSoC4/ADC_VC.c ****     * Summary:
 839:.\Generated_Source\PSoC4/ADC_VC.c ****     *  Converts the ADC output to Volts as a floating point number.
 840:.\Generated_Source\PSoC4/ADC_VC.c ****     *  This function is not available when left data format justification selected.
 841:.\Generated_Source\PSoC4/ADC_VC.c ****     *
 842:.\Generated_Source\PSoC4/ADC_VC.c ****     * Parameters:
 843:.\Generated_Source\PSoC4/ADC_VC.c ****     *  chan: The ADC channel number.
 844:.\Generated_Source\PSoC4/ADC_VC.c ****     *  Result from the ADC conversion
 845:.\Generated_Source\PSoC4/ADC_VC.c ****     *
 846:.\Generated_Source\PSoC4/ADC_VC.c ****     * Return:
 847:.\Generated_Source\PSoC4/ADC_VC.c ****     *  Results in Volts
 848:.\Generated_Source\PSoC4/ADC_VC.c ****     *
 849:.\Generated_Source\PSoC4/ADC_VC.c ****     * Global variables:
 850:.\Generated_Source\PSoC4/ADC_VC.c ****     *  ADC_VC_countsPer10Volt:  used to convert ADC counts to Volts.
 851:.\Generated_Source\PSoC4/ADC_VC.c ****     *  ADC_VC_Offset:  Used as the offset while converting ADC counts
 852:.\Generated_Source\PSoC4/ADC_VC.c ****     *   to mVolts.
 853:.\Generated_Source\PSoC4/ADC_VC.c ****     *
 854:.\Generated_Source\PSoC4/ADC_VC.c ****     *******************************************************************************/
 855:.\Generated_Source\PSoC4/ADC_VC.c ****     float32 ADC_VC_CountsTo_Volts(uint32 chan, int16 adcCounts)
 856:.\Generated_Source\PSoC4/ADC_VC.c ****     {
 927              		.loc 1 856 0
 928              		.cfi_startproc
 929              	.LVL75:
 930 0000 38B5     		push	{r3, r4, r5, lr}
 931              		.cfi_def_cfa_offset 16
 932              		.cfi_offset 3, -16
 933              		.cfi_offset 4, -12
 934              		.cfi_offset 5, -8
 935              		.cfi_offset 14, -4
 936 0002 041C     		mov	r4, r0
 937 0004 0D1C     		mov	r5, r1
 857:.\Generated_Source\PSoC4/ADC_VC.c ****         float32 volts;
 858:.\Generated_Source\PSoC4/ADC_VC.c **** 
 859:.\Generated_Source\PSoC4/ADC_VC.c ****         /* Halt CPU in debug mode if channel is out of valid range */
 860:.\Generated_Source\PSoC4/ADC_VC.c ****         CYASSERT(chan < ADC_VC_TOTAL_CHANNELS_NUM);
 938              		.loc 1 860 0
 939 0006 0128     		cmp	r0, #1
 940 0008 02D9     		bls	.L76
 941              		.loc 1 860 0 is_stmt 0 discriminator 1
 942 000a 0020     		mov	r0, #0
 943              	.LVL76:
 944 000c FFF7FEFF 		bl	CyHalt
 945              	.LVL77:
 946              	.L76:
 861:.\Generated_Source\PSoC4/ADC_VC.c **** 
 862:.\Generated_Source\PSoC4/ADC_VC.c ****         /* Divide the adcCount when accumulate averaging mode selected */
 863:.\Generated_Source\PSoC4/ADC_VC.c ****         #if(ADC_VC_DEFAULT_AVG_MODE == ADC_VC__ACCUMULATE)
 864:.\Generated_Source\PSoC4/ADC_VC.c ****             if((ADC_VC_channelsConfig[chan] & ADC_VC_AVERAGING_EN) != 0u)
 865:.\Generated_Source\PSoC4/ADC_VC.c ****             {
ARM GAS  C:\Users\Calin\AppData\Local\Temp\cckByqFG.s 			page 33


 866:.\Generated_Source\PSoC4/ADC_VC.c ****                 adcCounts /= ADC_VC_DEFAULT_AVG_SAMPLES_DIV;
 867:.\Generated_Source\PSoC4/ADC_VC.c ****             }
 868:.\Generated_Source\PSoC4/ADC_VC.c ****         #endif /* ADC_VC_DEFAULT_AVG_MODE == ADC_VC__ACCUMULATE */
 869:.\Generated_Source\PSoC4/ADC_VC.c **** 
 870:.\Generated_Source\PSoC4/ADC_VC.c ****         /* Subtract ADC offset */
 871:.\Generated_Source\PSoC4/ADC_VC.c ****         adcCounts -= ADC_VC_offset[chan];
 947              		.loc 1 871 0 is_stmt 1
 948 0010 6200     		lsl	r2, r4, #1
 949 0012 0A4B     		ldr	r3, .L77
 950 0014 D05A     		ldrh	r0, [r2, r3]
 951 0016 281A     		sub	r0, r5, r0
 952 0018 00B2     		sxth	r0, r0
 953              	.LVL78:
 872:.\Generated_Source\PSoC4/ADC_VC.c **** 
 873:.\Generated_Source\PSoC4/ADC_VC.c ****         volts = ((float32)adcCounts * ADC_VC_10V_COUNTS) / (float32)ADC_VC_countsPer10Volt[chan];
 954              		.loc 1 873 0
 955 001a FFF7FEFF 		bl	__aeabi_i2f
 956              	.LVL79:
 957 001e 0849     		ldr	r1, .L77+4
 958 0020 FFF7FEFF 		bl	__aeabi_fmul
 959              	.LVL80:
 960 0024 051C     		add	r5, r0, #0
 961 0026 A400     		lsl	r4, r4, #2
 962              	.LVL81:
 963 0028 064B     		ldr	r3, .L77+8
 964 002a E058     		ldr	r0, [r4, r3]
 965 002c FFF7FEFF 		bl	__aeabi_i2f
 966              	.LVL82:
 967 0030 011C     		add	r1, r0, #0
 968 0032 281C     		add	r0, r5, #0
 969 0034 FFF7FEFF 		bl	__aeabi_fdiv
 970              	.LVL83:
 874:.\Generated_Source\PSoC4/ADC_VC.c **** 
 875:.\Generated_Source\PSoC4/ADC_VC.c ****         return( volts );
 876:.\Generated_Source\PSoC4/ADC_VC.c ****     }
 971              		.loc 1 876 0
 972              		@ sp needed
 973 0038 38BD     		pop	{r3, r4, r5, pc}
 974              	.L78:
 975 003a C046     		.align	2
 976              	.L77:
 977 003c 00000000 		.word	ADC_VC_offset
 978 0040 00002041 		.word	1092616192
 979 0044 00000000 		.word	ADC_VC_countsPer10Volt
 980              		.cfi_endproc
 981              	.LFE17:
 982              		.size	ADC_VC_CountsTo_Volts, .-ADC_VC_CountsTo_Volts
 983              		.comm	ADC_VC_countsPer10Volt,8,4
 984              		.comm	ADC_VC_offset,4,4
 985              		.global	ADC_VC_initVar
 986              		.section	.rodata
 987              		.align	2
 988              		.set	.LANCHOR0,. + 0
 989              		.type	ADC_VC_channelsConfig, %object
 990              		.size	ADC_VC_channelsConfig, 8
 991              	ADC_VC_channelsConfig:
 992 0000 00060000 		.word	1536
ARM GAS  C:\Users\Calin\AppData\Local\Temp\cckByqFG.s 			page 34


 993 0004 00060000 		.word	1536
 994              		.type	ADC_VC_InputsPlacement.4742, %object
 995              		.size	ADC_VC_InputsPlacement.4742, 2
 996              	ADC_VC_InputsPlacement.4742:
 997 0008 00       		.byte	0
 998 0009 72       		.byte	114
 999 000a 0000     		.bss
 1000              		.set	.LANCHOR1,. + 0
 1001              		.type	ADC_VC_initVar, %object
 1002              		.size	ADC_VC_initVar, 1
 1003              	ADC_VC_initVar:
 1004 0000 00       		.space	1
 1005              		.text
 1006              	.Letext0:
 1007              		.file 2 ".\\Generated_Source\\PSoC4\\cytypes.h"
 1008              		.file 3 ".\\Generated_Source\\PSoC4\\CyLib.h"