ARM GAS  C:\Users\Calin\AppData\Local\Temp\ccXVFHPW.s 			page 1


   1              		.cpu cortex-m0
   2              		.fpu softvfp
   3              		.eabi_attribute 20, 1
   4              		.eabi_attribute 21, 1
   5              		.eabi_attribute 23, 3
   6              		.eabi_attribute 24, 1
   7              		.eabi_attribute 25, 1
   8              		.eabi_attribute 26, 1
   9              		.eabi_attribute 30, 1
  10              		.eabi_attribute 34, 0
  11              		.eabi_attribute 18, 4
  12              		.code	16
  13              		.file	"Count7_PM.c"
  14              		.text
  15              	.Ltext0:
  16              		.cfi_sections	.debug_frame
  17              		.section	.text.Count7_SaveConfig,"ax",%progbits
  18              		.align	2
  19              		.global	Count7_SaveConfig
  20              		.code	16
  21              		.thumb_func
  22              		.type	Count7_SaveConfig, %function
  23              	Count7_SaveConfig:
  24              	.LFB0:
  25              		.file 1 ".\\Generated_Source\\PSoC4\\Count7_PM.c"
   1:.\Generated_Source\PSoC4/Count7_PM.c **** /*******************************************************************************
   2:.\Generated_Source\PSoC4/Count7_PM.c **** * File Name: Count7_PM.c
   3:.\Generated_Source\PSoC4/Count7_PM.c **** * Version 1.0
   4:.\Generated_Source\PSoC4/Count7_PM.c **** *
   5:.\Generated_Source\PSoC4/Count7_PM.c **** * Description:
   6:.\Generated_Source\PSoC4/Count7_PM.c **** *  This file provides Low power mode APIs for Count7 component.
   7:.\Generated_Source\PSoC4/Count7_PM.c **** *
   8:.\Generated_Source\PSoC4/Count7_PM.c **** * Note:
   9:.\Generated_Source\PSoC4/Count7_PM.c **** *  None
  10:.\Generated_Source\PSoC4/Count7_PM.c **** *
  11:.\Generated_Source\PSoC4/Count7_PM.c **** ********************************************************************************
  12:.\Generated_Source\PSoC4/Count7_PM.c **** * Copyright 2013, Cypress Semiconductor Corporation.  All rights reserved.
  13:.\Generated_Source\PSoC4/Count7_PM.c **** * You may use this file only in accordance with the license, terms, conditions,
  14:.\Generated_Source\PSoC4/Count7_PM.c **** * disclaimers, and limitations in the end user license agreement accompanying
  15:.\Generated_Source\PSoC4/Count7_PM.c **** * the software package with which this file was provided.
  16:.\Generated_Source\PSoC4/Count7_PM.c **** *******************************************************************************/
  17:.\Generated_Source\PSoC4/Count7_PM.c **** 
  18:.\Generated_Source\PSoC4/Count7_PM.c **** #include "Count7.h"
  19:.\Generated_Source\PSoC4/Count7_PM.c **** 
  20:.\Generated_Source\PSoC4/Count7_PM.c **** 
  21:.\Generated_Source\PSoC4/Count7_PM.c **** Count7_BACKUP_STRUCT Count7_backup;
  22:.\Generated_Source\PSoC4/Count7_PM.c **** 
  23:.\Generated_Source\PSoC4/Count7_PM.c **** 
  24:.\Generated_Source\PSoC4/Count7_PM.c **** /*******************************************************************************
  25:.\Generated_Source\PSoC4/Count7_PM.c **** * Function Name: Count7_SaveConfig
  26:.\Generated_Source\PSoC4/Count7_PM.c **** ********************************************************************************
  27:.\Generated_Source\PSoC4/Count7_PM.c **** *
  28:.\Generated_Source\PSoC4/Count7_PM.c **** * Summary:
  29:.\Generated_Source\PSoC4/Count7_PM.c **** *  This function saves the component configuration and non-retention registers.
  30:.\Generated_Source\PSoC4/Count7_PM.c **** *  This function is called by the Count7_Sleep() function.
  31:.\Generated_Source\PSoC4/Count7_PM.c **** *
  32:.\Generated_Source\PSoC4/Count7_PM.c **** * Parameters:
ARM GAS  C:\Users\Calin\AppData\Local\Temp\ccXVFHPW.s 			page 2


  33:.\Generated_Source\PSoC4/Count7_PM.c **** *  None
  34:.\Generated_Source\PSoC4/Count7_PM.c **** *
  35:.\Generated_Source\PSoC4/Count7_PM.c **** * Return:
  36:.\Generated_Source\PSoC4/Count7_PM.c **** *  None
  37:.\Generated_Source\PSoC4/Count7_PM.c **** *
  38:.\Generated_Source\PSoC4/Count7_PM.c **** * Global Variables:
  39:.\Generated_Source\PSoC4/Count7_PM.c **** *  Count7_backup - used to save component configuration and non-
  40:.\Generated_Source\PSoC4/Count7_PM.c **** *  retention registers before enter sleep mode.
  41:.\Generated_Source\PSoC4/Count7_PM.c **** *
  42:.\Generated_Source\PSoC4/Count7_PM.c **** *******************************************************************************/
  43:.\Generated_Source\PSoC4/Count7_PM.c **** void Count7_SaveConfig(void) 
  44:.\Generated_Source\PSoC4/Count7_PM.c **** {
  26              		.loc 1 44 0
  27              		.cfi_startproc
  45:.\Generated_Source\PSoC4/Count7_PM.c ****     Count7_backup.count = Count7_COUNT_REG;
  28              		.loc 1 45 0
  29 0000 024B     		ldr	r3, .L2
  30 0002 1A78     		ldrb	r2, [r3]
  31 0004 024B     		ldr	r3, .L2+4
  32 0006 5A70     		strb	r2, [r3, #1]
  46:.\Generated_Source\PSoC4/Count7_PM.c **** }
  33              		.loc 1 46 0
  34              		@ sp needed
  35 0008 7047     		bx	lr
  36              	.L3:
  37 000a C046     		.align	2
  38              	.L2:
  39 000c 70000F40 		.word	1074724976
  40 0010 00000000 		.word	Count7_backup
  41              		.cfi_endproc
  42              	.LFE0:
  43              		.size	Count7_SaveConfig, .-Count7_SaveConfig
  44              		.section	.text.Count7_Sleep,"ax",%progbits
  45              		.align	2
  46              		.global	Count7_Sleep
  47              		.code	16
  48              		.thumb_func
  49              		.type	Count7_Sleep, %function
  50              	Count7_Sleep:
  51              	.LFB1:
  47:.\Generated_Source\PSoC4/Count7_PM.c **** 
  48:.\Generated_Source\PSoC4/Count7_PM.c **** 
  49:.\Generated_Source\PSoC4/Count7_PM.c **** /*******************************************************************************
  50:.\Generated_Source\PSoC4/Count7_PM.c **** * Function Name: Count7_Sleep
  51:.\Generated_Source\PSoC4/Count7_PM.c **** ********************************************************************************
  52:.\Generated_Source\PSoC4/Count7_PM.c **** *
  53:.\Generated_Source\PSoC4/Count7_PM.c **** * Summary:
  54:.\Generated_Source\PSoC4/Count7_PM.c **** *  This is the preferred API to prepare the component for low power mode
  55:.\Generated_Source\PSoC4/Count7_PM.c **** *  operation. The Count7_Sleep() API saves the current component state using
  56:.\Generated_Source\PSoC4/Count7_PM.c **** *  Count7_SaveConfig() and disables the counter.
  57:.\Generated_Source\PSoC4/Count7_PM.c **** *
  58:.\Generated_Source\PSoC4/Count7_PM.c **** * Parameters:
  59:.\Generated_Source\PSoC4/Count7_PM.c **** *  None
  60:.\Generated_Source\PSoC4/Count7_PM.c **** *
  61:.\Generated_Source\PSoC4/Count7_PM.c **** * Return:
  62:.\Generated_Source\PSoC4/Count7_PM.c **** *  None
  63:.\Generated_Source\PSoC4/Count7_PM.c **** *
ARM GAS  C:\Users\Calin\AppData\Local\Temp\ccXVFHPW.s 			page 3


  64:.\Generated_Source\PSoC4/Count7_PM.c **** *******************************************************************************/
  65:.\Generated_Source\PSoC4/Count7_PM.c **** void Count7_Sleep(void) 
  66:.\Generated_Source\PSoC4/Count7_PM.c **** {
  52              		.loc 1 66 0
  53              		.cfi_startproc
  54 0000 08B5     		push	{r3, lr}
  55              		.cfi_def_cfa_offset 8
  56              		.cfi_offset 3, -8
  57              		.cfi_offset 14, -4
  67:.\Generated_Source\PSoC4/Count7_PM.c ****     if(0u != (Count7_AUX_CONTROL_REG & Count7_COUNTER_START))
  58              		.loc 1 67 0
  59 0002 084B     		ldr	r3, .L7
  60 0004 1B78     		ldrb	r3, [r3]
  61 0006 9B06     		lsl	r3, r3, #26
  62 0008 05D5     		bpl	.L5
  68:.\Generated_Source\PSoC4/Count7_PM.c ****     {
  69:.\Generated_Source\PSoC4/Count7_PM.c ****         Count7_backup.enableState = 1u;
  63              		.loc 1 69 0
  64 000a 0122     		mov	r2, #1
  65 000c 064B     		ldr	r3, .L7+4
  66 000e 1A70     		strb	r2, [r3]
  70:.\Generated_Source\PSoC4/Count7_PM.c ****         Count7_Stop();
  67              		.loc 1 70 0
  68 0010 FFF7FEFF 		bl	Count7_Stop
  69              	.LVL0:
  70 0014 02E0     		b	.L6
  71              	.L5:
  71:.\Generated_Source\PSoC4/Count7_PM.c ****     }
  72:.\Generated_Source\PSoC4/Count7_PM.c ****     else
  73:.\Generated_Source\PSoC4/Count7_PM.c ****     {
  74:.\Generated_Source\PSoC4/Count7_PM.c ****         Count7_backup.enableState = 0u;
  72              		.loc 1 74 0
  73 0016 0022     		mov	r2, #0
  74 0018 034B     		ldr	r3, .L7+4
  75 001a 1A70     		strb	r2, [r3]
  76              	.L6:
  75:.\Generated_Source\PSoC4/Count7_PM.c ****     }
  76:.\Generated_Source\PSoC4/Count7_PM.c **** 
  77:.\Generated_Source\PSoC4/Count7_PM.c ****     Count7_SaveConfig();
  77              		.loc 1 77 0
  78 001c FFF7FEFF 		bl	Count7_SaveConfig
  79              	.LVL1:
  78:.\Generated_Source\PSoC4/Count7_PM.c **** }
  80              		.loc 1 78 0
  81              		@ sp needed
  82 0020 08BD     		pop	{r3, pc}
  83              	.L8:
  84 0022 C046     		.align	2
  85              	.L7:
  86 0024 90000F40 		.word	1074725008
  87 0028 00000000 		.word	Count7_backup
  88              		.cfi_endproc
  89              	.LFE1:
  90              		.size	Count7_Sleep, .-Count7_Sleep
  91              		.section	.text.Count7_RestoreConfig,"ax",%progbits
  92              		.align	2
  93              		.global	Count7_RestoreConfig
ARM GAS  C:\Users\Calin\AppData\Local\Temp\ccXVFHPW.s 			page 4


  94              		.code	16
  95              		.thumb_func
  96              		.type	Count7_RestoreConfig, %function
  97              	Count7_RestoreConfig:
  98              	.LFB2:
  79:.\Generated_Source\PSoC4/Count7_PM.c **** 
  80:.\Generated_Source\PSoC4/Count7_PM.c **** 
  81:.\Generated_Source\PSoC4/Count7_PM.c **** /*******************************************************************************
  82:.\Generated_Source\PSoC4/Count7_PM.c **** * Function Name: Count7_RestoreConfig
  83:.\Generated_Source\PSoC4/Count7_PM.c **** ********************************************************************************
  84:.\Generated_Source\PSoC4/Count7_PM.c **** *
  85:.\Generated_Source\PSoC4/Count7_PM.c **** * Summary:
  86:.\Generated_Source\PSoC4/Count7_PM.c **** *  This function restores the component configuration and non-retention
  87:.\Generated_Source\PSoC4/Count7_PM.c **** *  registers. This function is called by the Count7_Wakeup() function.
  88:.\Generated_Source\PSoC4/Count7_PM.c **** *
  89:.\Generated_Source\PSoC4/Count7_PM.c **** * Parameters:
  90:.\Generated_Source\PSoC4/Count7_PM.c **** *  None
  91:.\Generated_Source\PSoC4/Count7_PM.c **** *
  92:.\Generated_Source\PSoC4/Count7_PM.c **** * Return:
  93:.\Generated_Source\PSoC4/Count7_PM.c **** *  None
  94:.\Generated_Source\PSoC4/Count7_PM.c **** *
  95:.\Generated_Source\PSoC4/Count7_PM.c **** * Global Variables:
  96:.\Generated_Source\PSoC4/Count7_PM.c **** *  Count7_backup - used to save component configuration and
  97:.\Generated_Source\PSoC4/Count7_PM.c **** *  non-retention registers before exit sleep mode.
  98:.\Generated_Source\PSoC4/Count7_PM.c **** *
  99:.\Generated_Source\PSoC4/Count7_PM.c **** *******************************************************************************/
 100:.\Generated_Source\PSoC4/Count7_PM.c **** void Count7_RestoreConfig(void) 
 101:.\Generated_Source\PSoC4/Count7_PM.c **** {
  99              		.loc 1 101 0
 100              		.cfi_startproc
 102:.\Generated_Source\PSoC4/Count7_PM.c ****     Count7_COUNT_REG = Count7_backup.count;
 101              		.loc 1 102 0
 102 0000 024B     		ldr	r3, .L10
 103 0002 5A78     		ldrb	r2, [r3, #1]
 104 0004 024B     		ldr	r3, .L10+4
 105 0006 1A70     		strb	r2, [r3]
 103:.\Generated_Source\PSoC4/Count7_PM.c **** }
 106              		.loc 1 103 0
 107              		@ sp needed
 108 0008 7047     		bx	lr
 109              	.L11:
 110 000a C046     		.align	2
 111              	.L10:
 112 000c 00000000 		.word	Count7_backup
 113 0010 70000F40 		.word	1074724976
 114              		.cfi_endproc
 115              	.LFE2:
 116              		.size	Count7_RestoreConfig, .-Count7_RestoreConfig
 117              		.section	.text.Count7_Wakeup,"ax",%progbits
 118              		.align	2
 119              		.global	Count7_Wakeup
 120              		.code	16
 121              		.thumb_func
 122              		.type	Count7_Wakeup, %function
 123              	Count7_Wakeup:
 124              	.LFB3:
 104:.\Generated_Source\PSoC4/Count7_PM.c **** 
ARM GAS  C:\Users\Calin\AppData\Local\Temp\ccXVFHPW.s 			page 5


 105:.\Generated_Source\PSoC4/Count7_PM.c **** 
 106:.\Generated_Source\PSoC4/Count7_PM.c **** /*******************************************************************************
 107:.\Generated_Source\PSoC4/Count7_PM.c **** * Function Name: Count7_Wakeup
 108:.\Generated_Source\PSoC4/Count7_PM.c **** ********************************************************************************
 109:.\Generated_Source\PSoC4/Count7_PM.c **** *
 110:.\Generated_Source\PSoC4/Count7_PM.c **** * Summary:
 111:.\Generated_Source\PSoC4/Count7_PM.c **** *  This is the preferred API to restore the component to the state when
 112:.\Generated_Source\PSoC4/Count7_PM.c **** *  Count7_Sleep() was called. The Count7_Wakeup() function calls the
 113:.\Generated_Source\PSoC4/Count7_PM.c **** *  Count7_RestoreConfig() function to restore the configuration.
 114:.\Generated_Source\PSoC4/Count7_PM.c **** *
 115:.\Generated_Source\PSoC4/Count7_PM.c **** * Parameters:
 116:.\Generated_Source\PSoC4/Count7_PM.c **** *  None
 117:.\Generated_Source\PSoC4/Count7_PM.c **** *
 118:.\Generated_Source\PSoC4/Count7_PM.c **** * Return:
 119:.\Generated_Source\PSoC4/Count7_PM.c **** *  None
 120:.\Generated_Source\PSoC4/Count7_PM.c **** *
 121:.\Generated_Source\PSoC4/Count7_PM.c **** *******************************************************************************/
 122:.\Generated_Source\PSoC4/Count7_PM.c **** void Count7_Wakeup(void) 
 123:.\Generated_Source\PSoC4/Count7_PM.c **** {
 125              		.loc 1 123 0
 126              		.cfi_startproc
 127 0000 08B5     		push	{r3, lr}
 128              		.cfi_def_cfa_offset 8
 129              		.cfi_offset 3, -8
 130              		.cfi_offset 14, -4
 124:.\Generated_Source\PSoC4/Count7_PM.c ****     Count7_RestoreConfig();
 131              		.loc 1 124 0
 132 0002 FFF7FEFF 		bl	Count7_RestoreConfig
 133              	.LVL2:
 125:.\Generated_Source\PSoC4/Count7_PM.c **** 
 126:.\Generated_Source\PSoC4/Count7_PM.c ****     /* Restore enable state */
 127:.\Generated_Source\PSoC4/Count7_PM.c ****     if (Count7_backup.enableState != 0u)
 134              		.loc 1 127 0
 135 0006 034B     		ldr	r3, .L14
 136 0008 1B78     		ldrb	r3, [r3]
 137 000a 002B     		cmp	r3, #0
 138 000c 01D0     		beq	.L12
 128:.\Generated_Source\PSoC4/Count7_PM.c ****     {
 129:.\Generated_Source\PSoC4/Count7_PM.c ****         Count7_Enable();
 139              		.loc 1 129 0
 140 000e FFF7FEFF 		bl	Count7_Enable
 141              	.LVL3:
 142              	.L12:
 130:.\Generated_Source\PSoC4/Count7_PM.c ****     }
 131:.\Generated_Source\PSoC4/Count7_PM.c **** }
 143              		.loc 1 131 0
 144              		@ sp needed
 145 0012 08BD     		pop	{r3, pc}
 146              	.L15:
 147              		.align	2
 148              	.L14:
 149 0014 00000000 		.word	Count7_backup
 150              		.cfi_endproc
 151              	.LFE3:
 152              		.size	Count7_Wakeup, .-Count7_Wakeup
 153              		.comm	Count7_backup,2,4
 154              		.text
ARM GAS  C:\Users\Calin\AppData\Local\Temp\ccXVFHPW.s 			page 6


 155              	.Letext0:
 156              		.file 2 ".\\Generated_Source\\PSoC4\\cytypes.h"
 157              		.file 3 ".\\Generated_Source\\PSoC4\\Count7.h"