ARM GAS  C:\Users\Calin\AppData\Local\Temp\cc3CPSE4.s 			page 1


   1              		.cpu cortex-m0
   2              		.fpu softvfp
   3              		.eabi_attribute 20, 1
   4              		.eabi_attribute 21, 1
   5              		.eabi_attribute 23, 3
   6              		.eabi_attribute 24, 1
   7              		.eabi_attribute 25, 1
   8              		.eabi_attribute 26, 1
   9              		.eabi_attribute 30, 1
  10              		.eabi_attribute 34, 0
  11              		.eabi_attribute 18, 4
  12              		.code	16
  13              		.file	"cyfitter_cfg.c"
  14              		.text
  15              	.Ltext0:
  16              		.cfi_sections	.debug_frame
  17              		.section	.text.cfg_write_bytes32,"ax",%progbits
  18              		.align	2
  19              		.code	16
  20              		.thumb_func
  21              		.type	cfg_write_bytes32, %function
  22              	cfg_write_bytes32:
  23              	.LFB3:
  24              		.file 1 ".\\Generated_Source\\PSoC4\\cyfitter_cfg.c"
   1:.\Generated_Source\PSoC4/cyfitter_cfg.c **** /*******************************************************************************
   2:.\Generated_Source\PSoC4/cyfitter_cfg.c **** * File Name: cyfitter_cfg.c
   3:.\Generated_Source\PSoC4/cyfitter_cfg.c **** * 
   4:.\Generated_Source\PSoC4/cyfitter_cfg.c **** * PSoC Creator  3.3 CP2
   5:.\Generated_Source\PSoC4/cyfitter_cfg.c **** *
   6:.\Generated_Source\PSoC4/cyfitter_cfg.c **** * Description:
   7:.\Generated_Source\PSoC4/cyfitter_cfg.c **** * This file contains device initialization code.
   8:.\Generated_Source\PSoC4/cyfitter_cfg.c **** * Except for the user defined sections in CyClockStartupError(), this file should not be modified.
   9:.\Generated_Source\PSoC4/cyfitter_cfg.c **** * This file is automatically generated by PSoC Creator.
  10:.\Generated_Source\PSoC4/cyfitter_cfg.c **** *
  11:.\Generated_Source\PSoC4/cyfitter_cfg.c **** ********************************************************************************
  12:.\Generated_Source\PSoC4/cyfitter_cfg.c **** * Copyright (c) 2007-2015 Cypress Semiconductor.  All rights reserved.
  13:.\Generated_Source\PSoC4/cyfitter_cfg.c **** * You may use this file only in accordance with the license, terms, conditions, 
  14:.\Generated_Source\PSoC4/cyfitter_cfg.c **** * disclaimers, and limitations in the end user license agreement accompanying 
  15:.\Generated_Source\PSoC4/cyfitter_cfg.c **** * the software package with which this file was provided.
  16:.\Generated_Source\PSoC4/cyfitter_cfg.c **** ********************************************************************************/
  17:.\Generated_Source\PSoC4/cyfitter_cfg.c **** 
  18:.\Generated_Source\PSoC4/cyfitter_cfg.c **** #include <string.h>
  19:.\Generated_Source\PSoC4/cyfitter_cfg.c **** #include "cytypes.h"
  20:.\Generated_Source\PSoC4/cyfitter_cfg.c **** #include "cydevice_trm.h"
  21:.\Generated_Source\PSoC4/cyfitter_cfg.c **** #include "cyfitter.h"
  22:.\Generated_Source\PSoC4/cyfitter_cfg.c **** #include "CyLib.h"
  23:.\Generated_Source\PSoC4/cyfitter_cfg.c **** #include "CyLFClk.h"
  24:.\Generated_Source\PSoC4/cyfitter_cfg.c **** #include "cyfitter_cfg.h"
  25:.\Generated_Source\PSoC4/cyfitter_cfg.c **** 
  26:.\Generated_Source\PSoC4/cyfitter_cfg.c **** 
  27:.\Generated_Source\PSoC4/cyfitter_cfg.c **** #if defined(__GNUC__) || defined(__ARMCC_VERSION)
  28:.\Generated_Source\PSoC4/cyfitter_cfg.c ****     #define CYPACKED 
  29:.\Generated_Source\PSoC4/cyfitter_cfg.c ****     #define CYPACKED_ATTR __attribute__ ((packed))
  30:.\Generated_Source\PSoC4/cyfitter_cfg.c ****     #define CYALIGNED __attribute__ ((aligned))
  31:.\Generated_Source\PSoC4/cyfitter_cfg.c ****     #define CY_CFG_UNUSED __attribute__ ((unused))
  32:.\Generated_Source\PSoC4/cyfitter_cfg.c ****     #ifndef CY_CFG_SECTION
  33:.\Generated_Source\PSoC4/cyfitter_cfg.c ****         #define CY_CFG_SECTION __attribute__ ((section(".psocinit")))
ARM GAS  C:\Users\Calin\AppData\Local\Temp\cc3CPSE4.s 			page 2


  34:.\Generated_Source\PSoC4/cyfitter_cfg.c ****     #endif
  35:.\Generated_Source\PSoC4/cyfitter_cfg.c ****     
  36:.\Generated_Source\PSoC4/cyfitter_cfg.c ****     #if defined(__ARMCC_VERSION)
  37:.\Generated_Source\PSoC4/cyfitter_cfg.c ****         #define CY_CFG_MEMORY_BARRIER() __memory_changed()
  38:.\Generated_Source\PSoC4/cyfitter_cfg.c ****     #else
  39:.\Generated_Source\PSoC4/cyfitter_cfg.c ****         #define CY_CFG_MEMORY_BARRIER() __sync_synchronize()
  40:.\Generated_Source\PSoC4/cyfitter_cfg.c ****     #endif
  41:.\Generated_Source\PSoC4/cyfitter_cfg.c ****     
  42:.\Generated_Source\PSoC4/cyfitter_cfg.c **** #elif defined(__ICCARM__)
  43:.\Generated_Source\PSoC4/cyfitter_cfg.c ****     #include <intrinsics.h>
  44:.\Generated_Source\PSoC4/cyfitter_cfg.c **** 
  45:.\Generated_Source\PSoC4/cyfitter_cfg.c ****     #define CYPACKED __packed
  46:.\Generated_Source\PSoC4/cyfitter_cfg.c ****     #define CYPACKED_ATTR 
  47:.\Generated_Source\PSoC4/cyfitter_cfg.c ****     #define CYALIGNED _Pragma("data_alignment=4")
  48:.\Generated_Source\PSoC4/cyfitter_cfg.c ****     #define CY_CFG_UNUSED _Pragma("diag_suppress=Pe177")
  49:.\Generated_Source\PSoC4/cyfitter_cfg.c ****     #define CY_CFG_SECTION _Pragma("location=\".psocinit\"")
  50:.\Generated_Source\PSoC4/cyfitter_cfg.c ****     
  51:.\Generated_Source\PSoC4/cyfitter_cfg.c ****     #define CY_CFG_MEMORY_BARRIER() __DMB()
  52:.\Generated_Source\PSoC4/cyfitter_cfg.c ****     
  53:.\Generated_Source\PSoC4/cyfitter_cfg.c **** #else
  54:.\Generated_Source\PSoC4/cyfitter_cfg.c ****     #error Unsupported toolchain
  55:.\Generated_Source\PSoC4/cyfitter_cfg.c **** #endif
  56:.\Generated_Source\PSoC4/cyfitter_cfg.c **** 
  57:.\Generated_Source\PSoC4/cyfitter_cfg.c **** 
  58:.\Generated_Source\PSoC4/cyfitter_cfg.c **** CY_CFG_UNUSED
  59:.\Generated_Source\PSoC4/cyfitter_cfg.c **** static void CYMEMZERO(void *s, size_t n);
  60:.\Generated_Source\PSoC4/cyfitter_cfg.c **** CY_CFG_UNUSED
  61:.\Generated_Source\PSoC4/cyfitter_cfg.c **** static void CYMEMZERO(void *s, size_t n)
  62:.\Generated_Source\PSoC4/cyfitter_cfg.c **** {
  63:.\Generated_Source\PSoC4/cyfitter_cfg.c **** 	(void)memset(s, 0, n);
  64:.\Generated_Source\PSoC4/cyfitter_cfg.c **** }
  65:.\Generated_Source\PSoC4/cyfitter_cfg.c **** CY_CFG_UNUSED
  66:.\Generated_Source\PSoC4/cyfitter_cfg.c **** static void CYCONFIGCPY(void *dest, const void *src, size_t n);
  67:.\Generated_Source\PSoC4/cyfitter_cfg.c **** CY_CFG_UNUSED
  68:.\Generated_Source\PSoC4/cyfitter_cfg.c **** static void CYCONFIGCPY(void *dest, const void *src, size_t n)
  69:.\Generated_Source\PSoC4/cyfitter_cfg.c **** {
  70:.\Generated_Source\PSoC4/cyfitter_cfg.c **** 	(void)memcpy(dest, src, n);
  71:.\Generated_Source\PSoC4/cyfitter_cfg.c **** }
  72:.\Generated_Source\PSoC4/cyfitter_cfg.c **** CY_CFG_UNUSED
  73:.\Generated_Source\PSoC4/cyfitter_cfg.c **** static void CYCONFIGCPYCODE(void *dest, const void *src, size_t n);
  74:.\Generated_Source\PSoC4/cyfitter_cfg.c **** CY_CFG_UNUSED
  75:.\Generated_Source\PSoC4/cyfitter_cfg.c **** static void CYCONFIGCPYCODE(void *dest, const void *src, size_t n)
  76:.\Generated_Source\PSoC4/cyfitter_cfg.c **** {
  77:.\Generated_Source\PSoC4/cyfitter_cfg.c **** 	(void)memcpy(dest, src, n);
  78:.\Generated_Source\PSoC4/cyfitter_cfg.c **** }
  79:.\Generated_Source\PSoC4/cyfitter_cfg.c **** 
  80:.\Generated_Source\PSoC4/cyfitter_cfg.c **** 
  81:.\Generated_Source\PSoC4/cyfitter_cfg.c **** 
  82:.\Generated_Source\PSoC4/cyfitter_cfg.c **** /* Clock startup error codes                                                   */
  83:.\Generated_Source\PSoC4/cyfitter_cfg.c **** #define CYCLOCKSTART_NO_ERROR    0u
  84:.\Generated_Source\PSoC4/cyfitter_cfg.c **** #define CYCLOCKSTART_XTAL_ERROR  1u
  85:.\Generated_Source\PSoC4/cyfitter_cfg.c **** #define CYCLOCKSTART_32KHZ_ERROR 2u
  86:.\Generated_Source\PSoC4/cyfitter_cfg.c **** #define CYCLOCKSTART_PLL_ERROR   3u
  87:.\Generated_Source\PSoC4/cyfitter_cfg.c **** 
  88:.\Generated_Source\PSoC4/cyfitter_cfg.c **** #ifdef CY_NEED_CYCLOCKSTARTUPERROR
  89:.\Generated_Source\PSoC4/cyfitter_cfg.c **** /*******************************************************************************
  90:.\Generated_Source\PSoC4/cyfitter_cfg.c **** * Function Name: CyClockStartupError
ARM GAS  C:\Users\Calin\AppData\Local\Temp\cc3CPSE4.s 			page 3


  91:.\Generated_Source\PSoC4/cyfitter_cfg.c **** ********************************************************************************
  92:.\Generated_Source\PSoC4/cyfitter_cfg.c **** * Summary:
  93:.\Generated_Source\PSoC4/cyfitter_cfg.c **** *  If an error is encountered during clock configuration (crystal startup error,
  94:.\Generated_Source\PSoC4/cyfitter_cfg.c **** *  PLL lock error, etc.), the system will end up here.  Unless reimplemented by
  95:.\Generated_Source\PSoC4/cyfitter_cfg.c **** *  the customer, this function will stop in an infinite loop.
  96:.\Generated_Source\PSoC4/cyfitter_cfg.c **** *
  97:.\Generated_Source\PSoC4/cyfitter_cfg.c **** * Parameters:
  98:.\Generated_Source\PSoC4/cyfitter_cfg.c **** *   void
  99:.\Generated_Source\PSoC4/cyfitter_cfg.c **** *
 100:.\Generated_Source\PSoC4/cyfitter_cfg.c **** * Return:
 101:.\Generated_Source\PSoC4/cyfitter_cfg.c **** *   void
 102:.\Generated_Source\PSoC4/cyfitter_cfg.c **** *
 103:.\Generated_Source\PSoC4/cyfitter_cfg.c **** *******************************************************************************/
 104:.\Generated_Source\PSoC4/cyfitter_cfg.c **** CY_CFG_UNUSED
 105:.\Generated_Source\PSoC4/cyfitter_cfg.c **** static void CyClockStartupError(uint8 errorCode);
 106:.\Generated_Source\PSoC4/cyfitter_cfg.c **** CY_CFG_UNUSED
 107:.\Generated_Source\PSoC4/cyfitter_cfg.c **** static void CyClockStartupError(uint8 errorCode)
 108:.\Generated_Source\PSoC4/cyfitter_cfg.c **** {
 109:.\Generated_Source\PSoC4/cyfitter_cfg.c ****     /* To remove the compiler warning if errorCode not used.                */
 110:.\Generated_Source\PSoC4/cyfitter_cfg.c ****     errorCode = errorCode;
 111:.\Generated_Source\PSoC4/cyfitter_cfg.c **** 
 112:.\Generated_Source\PSoC4/cyfitter_cfg.c ****     /* `#START CyClockStartupError` */
 113:.\Generated_Source\PSoC4/cyfitter_cfg.c **** 
 114:.\Generated_Source\PSoC4/cyfitter_cfg.c ****     /* If we have a clock startup error (bad MHz crystal, PLL lock, etc.),  */
 115:.\Generated_Source\PSoC4/cyfitter_cfg.c ****     /* we will end up here to allow the customer to implement something to  */
 116:.\Generated_Source\PSoC4/cyfitter_cfg.c ****     /* deal with the clock condition.                                       */
 117:.\Generated_Source\PSoC4/cyfitter_cfg.c **** 
 118:.\Generated_Source\PSoC4/cyfitter_cfg.c ****     /* `#END` */
 119:.\Generated_Source\PSoC4/cyfitter_cfg.c **** 
 120:.\Generated_Source\PSoC4/cyfitter_cfg.c ****     /* If nothing else, stop here since the clocks have not started         */
 121:.\Generated_Source\PSoC4/cyfitter_cfg.c ****     /* correctly.                                                           */
 122:.\Generated_Source\PSoC4/cyfitter_cfg.c ****     while(1) {}
 123:.\Generated_Source\PSoC4/cyfitter_cfg.c **** }
 124:.\Generated_Source\PSoC4/cyfitter_cfg.c **** #endif
 125:.\Generated_Source\PSoC4/cyfitter_cfg.c **** 
 126:.\Generated_Source\PSoC4/cyfitter_cfg.c **** #define CY_CFG_BASE_ADDR_COUNT 10u
 127:.\Generated_Source\PSoC4/cyfitter_cfg.c **** CYPACKED typedef struct
 128:.\Generated_Source\PSoC4/cyfitter_cfg.c **** {
 129:.\Generated_Source\PSoC4/cyfitter_cfg.c **** 	uint8 offset;
 130:.\Generated_Source\PSoC4/cyfitter_cfg.c **** 	uint8 value;
 131:.\Generated_Source\PSoC4/cyfitter_cfg.c **** } CYPACKED_ATTR cy_cfg_addrvalue_t;
 132:.\Generated_Source\PSoC4/cyfitter_cfg.c **** 
 133:.\Generated_Source\PSoC4/cyfitter_cfg.c **** 
 134:.\Generated_Source\PSoC4/cyfitter_cfg.c **** 
 135:.\Generated_Source\PSoC4/cyfitter_cfg.c **** /*******************************************************************************
 136:.\Generated_Source\PSoC4/cyfitter_cfg.c **** * Function Name: cfg_write_bytes32
 137:.\Generated_Source\PSoC4/cyfitter_cfg.c **** ********************************************************************************
 138:.\Generated_Source\PSoC4/cyfitter_cfg.c **** * Summary:
 139:.\Generated_Source\PSoC4/cyfitter_cfg.c **** *  This function is used for setting up the chip configuration areas that
 140:.\Generated_Source\PSoC4/cyfitter_cfg.c **** *  contain relatively sparse data.
 141:.\Generated_Source\PSoC4/cyfitter_cfg.c **** *
 142:.\Generated_Source\PSoC4/cyfitter_cfg.c **** * Parameters:
 143:.\Generated_Source\PSoC4/cyfitter_cfg.c **** *   void
 144:.\Generated_Source\PSoC4/cyfitter_cfg.c **** *
 145:.\Generated_Source\PSoC4/cyfitter_cfg.c **** * Return:
 146:.\Generated_Source\PSoC4/cyfitter_cfg.c **** *   void
 147:.\Generated_Source\PSoC4/cyfitter_cfg.c **** *
ARM GAS  C:\Users\Calin\AppData\Local\Temp\cc3CPSE4.s 			page 4


 148:.\Generated_Source\PSoC4/cyfitter_cfg.c **** *******************************************************************************/
 149:.\Generated_Source\PSoC4/cyfitter_cfg.c **** static void cfg_write_bytes32(const uint32 addr_table[], const cy_cfg_addrvalue_t data_table[]);
 150:.\Generated_Source\PSoC4/cyfitter_cfg.c **** static void cfg_write_bytes32(const uint32 addr_table[], const cy_cfg_addrvalue_t data_table[])
 151:.\Generated_Source\PSoC4/cyfitter_cfg.c **** {
  25              		.loc 1 151 0
  26              		.cfi_startproc
  27              	.LVL0:
  28 0000 F0B5     		push	{r4, r5, r6, r7, lr}
  29              		.cfi_def_cfa_offset 20
  30              		.cfi_offset 4, -20
  31              		.cfi_offset 5, -16
  32              		.cfi_offset 6, -12
  33              		.cfi_offset 7, -8
  34              		.cfi_offset 14, -4
  35              	.LVL1:
 152:.\Generated_Source\PSoC4/cyfitter_cfg.c **** 	/* For 32-bit little-endian architectures */
 153:.\Generated_Source\PSoC4/cyfitter_cfg.c **** 	uint32 i, j = 0u;
  36              		.loc 1 153 0
  37 0002 0025     		mov	r5, #0
 154:.\Generated_Source\PSoC4/cyfitter_cfg.c **** 	for (i = 0u; i < CY_CFG_BASE_ADDR_COUNT; i++)
  38              		.loc 1 154 0
  39 0004 0027     		mov	r7, #0
  40 0006 11E0     		b	.L2
  41              	.LVL2:
  42              	.L5:
  43              	.LBB2:
 155:.\Generated_Source\PSoC4/cyfitter_cfg.c **** 	{
 156:.\Generated_Source\PSoC4/cyfitter_cfg.c **** 		uint32 baseAddr = addr_table[i];
  44              		.loc 1 156 0
  45 0008 BB00     		lsl	r3, r7, #2
  46 000a C658     		ldr	r6, [r0, r3]
  47              	.LVL3:
 157:.\Generated_Source\PSoC4/cyfitter_cfg.c **** 		uint8 count = (uint8)baseAddr;
  48              		.loc 1 157 0
  49 000c F3B2     		uxtb	r3, r6
  50              	.LVL4:
 158:.\Generated_Source\PSoC4/cyfitter_cfg.c **** 		baseAddr &= 0xFFFFFF00u;
  51              		.loc 1 158 0
  52 000e FF22     		mov	r2, #255
  53 0010 9643     		bic	r6, r2
  54              	.LVL5:
 159:.\Generated_Source\PSoC4/cyfitter_cfg.c **** 		while (count != 0u)
  55              		.loc 1 159 0
  56 0012 08E0     		b	.L3
  57              	.L4:
 160:.\Generated_Source\PSoC4/cyfitter_cfg.c **** 		{
 161:.\Generated_Source\PSoC4/cyfitter_cfg.c **** 			CY_SET_XTND_REG8((void CYFAR *)(baseAddr + data_table[j].offset), data_table[j].value);
  58              		.loc 1 161 0
  59 0014 6A00     		lsl	r2, r5, #1
  60 0016 8A18     		add	r2, r1, r2
  61 0018 1478     		ldrb	r4, [r2]
  62 001a A419     		add	r4, r4, r6
  63 001c 5278     		ldrb	r2, [r2, #1]
  64 001e 2270     		strb	r2, [r4]
 162:.\Generated_Source\PSoC4/cyfitter_cfg.c **** 			j++;
  65              		.loc 1 162 0
  66 0020 0135     		add	r5, r5, #1
ARM GAS  C:\Users\Calin\AppData\Local\Temp\cc3CPSE4.s 			page 5


  67              	.LVL6:
 163:.\Generated_Source\PSoC4/cyfitter_cfg.c **** 			count--;
  68              		.loc 1 163 0
  69 0022 013B     		sub	r3, r3, #1
  70              	.LVL7:
  71 0024 DBB2     		uxtb	r3, r3
  72              	.LVL8:
  73              	.L3:
 159:.\Generated_Source\PSoC4/cyfitter_cfg.c **** 		{
  74              		.loc 1 159 0
  75 0026 002B     		cmp	r3, #0
  76 0028 F4D1     		bne	.L4
  77              	.LBE2:
 154:.\Generated_Source\PSoC4/cyfitter_cfg.c **** 	{
  78              		.loc 1 154 0 discriminator 2
  79 002a 0137     		add	r7, r7, #1
  80              	.LVL9:
  81              	.L2:
 154:.\Generated_Source\PSoC4/cyfitter_cfg.c **** 	{
  82              		.loc 1 154 0 is_stmt 0 discriminator 1
  83 002c 092F     		cmp	r7, #9
  84 002e EBD9     		bls	.L5
 164:.\Generated_Source\PSoC4/cyfitter_cfg.c **** 		}
 165:.\Generated_Source\PSoC4/cyfitter_cfg.c **** 	}
 166:.\Generated_Source\PSoC4/cyfitter_cfg.c **** }
  85              		.loc 1 166 0 is_stmt 1
  86              		@ sp needed
  87              	.LVL10:
  88              	.LVL11:
  89 0030 F0BD     		pop	{r4, r5, r6, r7, pc}
  90              		.cfi_endproc
  91              	.LFE3:
  92              		.size	cfg_write_bytes32, .-cfg_write_bytes32
  93 0032 C046     		.section	.text.AnalogSetDefault,"ax",%progbits
  94              		.align	2
  95              		.code	16
  96              		.thumb_func
  97              		.type	AnalogSetDefault, %function
  98              	AnalogSetDefault:
  99              	.LFB5:
 167:.\Generated_Source\PSoC4/cyfitter_cfg.c **** 
 168:.\Generated_Source\PSoC4/cyfitter_cfg.c **** 
 169:.\Generated_Source\PSoC4/cyfitter_cfg.c **** /*******************************************************************************
 170:.\Generated_Source\PSoC4/cyfitter_cfg.c **** * Function Name: ClockSetup
 171:.\Generated_Source\PSoC4/cyfitter_cfg.c **** ********************************************************************************
 172:.\Generated_Source\PSoC4/cyfitter_cfg.c **** *
 173:.\Generated_Source\PSoC4/cyfitter_cfg.c **** * Summary:
 174:.\Generated_Source\PSoC4/cyfitter_cfg.c **** *   Performs the initialization of all of the clocks in the device based on the
 175:.\Generated_Source\PSoC4/cyfitter_cfg.c **** *   settings in the Clock tab of the DWR.  This includes enabling the requested
 176:.\Generated_Source\PSoC4/cyfitter_cfg.c **** *   clocks and setting the necessary dividers to produce the desired frequency. 
 177:.\Generated_Source\PSoC4/cyfitter_cfg.c **** *
 178:.\Generated_Source\PSoC4/cyfitter_cfg.c **** * Parameters:
 179:.\Generated_Source\PSoC4/cyfitter_cfg.c **** *   void
 180:.\Generated_Source\PSoC4/cyfitter_cfg.c **** *
 181:.\Generated_Source\PSoC4/cyfitter_cfg.c **** * Return:
 182:.\Generated_Source\PSoC4/cyfitter_cfg.c **** *   void
 183:.\Generated_Source\PSoC4/cyfitter_cfg.c **** *
ARM GAS  C:\Users\Calin\AppData\Local\Temp\cc3CPSE4.s 			page 6


 184:.\Generated_Source\PSoC4/cyfitter_cfg.c **** *******************************************************************************/
 185:.\Generated_Source\PSoC4/cyfitter_cfg.c **** static void ClockSetup(void);
 186:.\Generated_Source\PSoC4/cyfitter_cfg.c **** CY_CFG_SECTION
 187:.\Generated_Source\PSoC4/cyfitter_cfg.c **** static void ClockSetup(void)
 188:.\Generated_Source\PSoC4/cyfitter_cfg.c **** {
 189:.\Generated_Source\PSoC4/cyfitter_cfg.c **** 	/* Enable HALF_EN before trimming for the flash accelerator. */
 190:.\Generated_Source\PSoC4/cyfitter_cfg.c **** 	CY_SET_REG32((void CYXDATA *)(CYREG_CLK_SELECT), (CY_GET_REG32((void *)CYREG_CLK_SELECT) | 0x00040
 191:.\Generated_Source\PSoC4/cyfitter_cfg.c **** 
 192:.\Generated_Source\PSoC4/cyfitter_cfg.c **** 	/* Setup and trim IMO based on desired frequency. */
 193:.\Generated_Source\PSoC4/cyfitter_cfg.c **** 	CySysClkWriteImoFreq(24u);
 194:.\Generated_Source\PSoC4/cyfitter_cfg.c **** 
 195:.\Generated_Source\PSoC4/cyfitter_cfg.c **** 	/* Disable HALF_EN since it is not required at this IMO frequency. */
 196:.\Generated_Source\PSoC4/cyfitter_cfg.c **** 	CY_SET_REG32((void CYXDATA *)(CYREG_CLK_SELECT), (CY_GET_REG32((void *)CYREG_CLK_SELECT) & 0xFFFBF
 197:.\Generated_Source\PSoC4/cyfitter_cfg.c **** 	/* CYDEV_CLK_ILO_CONFIG Starting address: CYDEV_CLK_ILO_CONFIG */
 198:.\Generated_Source\PSoC4/cyfitter_cfg.c **** 	CY_SET_XTND_REG32((void CYFAR *)(CYREG_CLK_ILO_CONFIG), 0x80000006u);
 199:.\Generated_Source\PSoC4/cyfitter_cfg.c **** 
 200:.\Generated_Source\PSoC4/cyfitter_cfg.c **** 
 201:.\Generated_Source\PSoC4/cyfitter_cfg.c **** 	/* CYDEV_CLK_SELECT00 Starting address: CYDEV_CLK_SELECT00 */
 202:.\Generated_Source\PSoC4/cyfitter_cfg.c **** 	CY_SET_XTND_REG32((void CYFAR *)(CYREG_CLK_SELECT07), 0x00000020u);
 203:.\Generated_Source\PSoC4/cyfitter_cfg.c **** 	CY_SET_XTND_REG32((void CYFAR *)(CYREG_CLK_SELECT08), 0x00000021u);
 204:.\Generated_Source\PSoC4/cyfitter_cfg.c **** 	CY_SET_XTND_REG32((void CYFAR *)(CYREG_CLK_SELECT09), 0x00000010u);
 205:.\Generated_Source\PSoC4/cyfitter_cfg.c **** 	CY_SET_XTND_REG32((void CYFAR *)(CYREG_CLK_SELECT10), 0x00000010u);
 206:.\Generated_Source\PSoC4/cyfitter_cfg.c **** 	CY_SET_XTND_REG32((void CYFAR *)(CYREG_CLK_SELECT11), 0x00000010u);
 207:.\Generated_Source\PSoC4/cyfitter_cfg.c **** 	CY_SET_XTND_REG32((void CYFAR *)(CYREG_CLK_SELECT13), 0x00000030u);
 208:.\Generated_Source\PSoC4/cyfitter_cfg.c **** 	CY_SET_XTND_REG32((void CYFAR *)(CYREG_CLK_SELECT14), 0x00000022u);
 209:.\Generated_Source\PSoC4/cyfitter_cfg.c **** 	CY_SET_XTND_REG32((void CYFAR *)(CYREG_CLK_SELECT15), 0x00000011u);
 210:.\Generated_Source\PSoC4/cyfitter_cfg.c **** 
 211:.\Generated_Source\PSoC4/cyfitter_cfg.c **** 	/* CYDEV_CLK_IMO_CONFIG Starting address: CYDEV_CLK_IMO_CONFIG */
 212:.\Generated_Source\PSoC4/cyfitter_cfg.c **** 	CY_SET_XTND_REG32((void CYFAR *)(CYREG_CLK_IMO_CONFIG), 0x82000000u);
 213:.\Generated_Source\PSoC4/cyfitter_cfg.c **** 
 214:.\Generated_Source\PSoC4/cyfitter_cfg.c **** 	/* CYDEV_CLK_SELECT Starting address: CYDEV_CLK_SELECT */
 215:.\Generated_Source\PSoC4/cyfitter_cfg.c **** 	CY_SET_XTND_REG32((void CYFAR *)(CYREG_CLK_SELECT), 0x00000000u);
 216:.\Generated_Source\PSoC4/cyfitter_cfg.c **** 
 217:.\Generated_Source\PSoC4/cyfitter_cfg.c **** 	/* CYDEV_CLK_DIVIDER_A00 Starting address: CYDEV_CLK_DIVIDER_A00 */
 218:.\Generated_Source\PSoC4/cyfitter_cfg.c **** 	CY_SET_XTND_REG32((void CYFAR *)(CYREG_CLK_DIVIDER_A00), 0x80000000u);
 219:.\Generated_Source\PSoC4/cyfitter_cfg.c **** 
 220:.\Generated_Source\PSoC4/cyfitter_cfg.c **** 	/* CYDEV_CLK_DIVIDER_B00 Starting address: CYDEV_CLK_DIVIDER_B00 */
 221:.\Generated_Source\PSoC4/cyfitter_cfg.c **** 	CY_SET_XTND_REG32((void CYFAR *)(CYREG_CLK_DIVIDER_B00), 0x80000016u);
 222:.\Generated_Source\PSoC4/cyfitter_cfg.c **** 
 223:.\Generated_Source\PSoC4/cyfitter_cfg.c **** 	/* CYDEV_CLK_DIVIDER_C00 Starting address: CYDEV_CLK_DIVIDER_C00 */
 224:.\Generated_Source\PSoC4/cyfitter_cfg.c **** 	CY_SET_XTND_REG32((void CYFAR *)(CYREG_CLK_DIVIDER_C00), 0x80000176u);
 225:.\Generated_Source\PSoC4/cyfitter_cfg.c **** 
 226:.\Generated_Source\PSoC4/cyfitter_cfg.c **** 	/* CYDEV_CLK_DIVIDER_A01 Starting address: CYDEV_CLK_DIVIDER_A01 */
 227:.\Generated_Source\PSoC4/cyfitter_cfg.c **** 	CY_SET_XTND_REG32((void CYFAR *)(CYREG_CLK_DIVIDER_A01), 0x80003E7Fu);
 228:.\Generated_Source\PSoC4/cyfitter_cfg.c **** 
 229:.\Generated_Source\PSoC4/cyfitter_cfg.c **** 	/* CYDEV_CLK_DIVIDER_B01 Starting address: CYDEV_CLK_DIVIDER_B01 */
 230:.\Generated_Source\PSoC4/cyfitter_cfg.c **** 	CY_SET_XTND_REG32((void CYFAR *)(CYREG_CLK_DIVIDER_B01), 0x80005DBFu);
 231:.\Generated_Source\PSoC4/cyfitter_cfg.c **** 
 232:.\Generated_Source\PSoC4/cyfitter_cfg.c **** 	/* CYDEV_CLK_DIVIDER_A02 Starting address: CYDEV_CLK_DIVIDER_A02 */
 233:.\Generated_Source\PSoC4/cyfitter_cfg.c **** 	CY_SET_XTND_REG32((void CYFAR *)(CYREG_CLK_DIVIDER_A02), 0x80000176u);
 234:.\Generated_Source\PSoC4/cyfitter_cfg.c **** 
 235:.\Generated_Source\PSoC4/cyfitter_cfg.c **** 	/* CYDEV_CLK_DIVIDER_B02 Starting address: CYDEV_CLK_DIVIDER_B02 */
 236:.\Generated_Source\PSoC4/cyfitter_cfg.c **** 	CY_SET_XTND_REG32((void CYFAR *)(CYREG_CLK_DIVIDER_B02), 0xC000013Fu);
 237:.\Generated_Source\PSoC4/cyfitter_cfg.c **** 
 238:.\Generated_Source\PSoC4/cyfitter_cfg.c **** 	(void)CyIntSetVector(9u, &CySysWdtIsr);
 239:.\Generated_Source\PSoC4/cyfitter_cfg.c **** 	CyIntEnable(9u);
 240:.\Generated_Source\PSoC4/cyfitter_cfg.c **** 	CY_SET_XTND_REG32((void CYFAR *)(CYREG_WDT_CONFIG), 0x00000000u);
ARM GAS  C:\Users\Calin\AppData\Local\Temp\cc3CPSE4.s 			page 7


 241:.\Generated_Source\PSoC4/cyfitter_cfg.c **** }
 242:.\Generated_Source\PSoC4/cyfitter_cfg.c **** 
 243:.\Generated_Source\PSoC4/cyfitter_cfg.c **** 
 244:.\Generated_Source\PSoC4/cyfitter_cfg.c **** /* Analog API Functions */
 245:.\Generated_Source\PSoC4/cyfitter_cfg.c **** 
 246:.\Generated_Source\PSoC4/cyfitter_cfg.c **** 
 247:.\Generated_Source\PSoC4/cyfitter_cfg.c **** /*******************************************************************************
 248:.\Generated_Source\PSoC4/cyfitter_cfg.c **** * Function Name: AnalogSetDefault
 249:.\Generated_Source\PSoC4/cyfitter_cfg.c **** ********************************************************************************
 250:.\Generated_Source\PSoC4/cyfitter_cfg.c **** *
 251:.\Generated_Source\PSoC4/cyfitter_cfg.c **** * Summary:
 252:.\Generated_Source\PSoC4/cyfitter_cfg.c **** *  Sets up the analog portions of the chip to default values based on chip
 253:.\Generated_Source\PSoC4/cyfitter_cfg.c **** *  configuration options from the project.
 254:.\Generated_Source\PSoC4/cyfitter_cfg.c **** *
 255:.\Generated_Source\PSoC4/cyfitter_cfg.c **** * Parameters:
 256:.\Generated_Source\PSoC4/cyfitter_cfg.c **** *  void
 257:.\Generated_Source\PSoC4/cyfitter_cfg.c **** *
 258:.\Generated_Source\PSoC4/cyfitter_cfg.c **** * Return:
 259:.\Generated_Source\PSoC4/cyfitter_cfg.c **** *  void
 260:.\Generated_Source\PSoC4/cyfitter_cfg.c **** *
 261:.\Generated_Source\PSoC4/cyfitter_cfg.c **** *******************************************************************************/
 262:.\Generated_Source\PSoC4/cyfitter_cfg.c **** static void AnalogSetDefault(void);
 263:.\Generated_Source\PSoC4/cyfitter_cfg.c **** static void AnalogSetDefault(void)
 264:.\Generated_Source\PSoC4/cyfitter_cfg.c **** {
 100              		.loc 1 264 0
 101              		.cfi_startproc
 265:.\Generated_Source\PSoC4/cyfitter_cfg.c **** 	CY_SET_XTND_REG32((void CYFAR *)CYREG_SAR_MUX_SWITCH0, 0x00000003u);
 102              		.loc 1 265 0
 103 0000 0323     		mov	r3, #3
 104 0002 024A     		ldr	r2, .L7
 105 0004 1360     		str	r3, [r2]
 266:.\Generated_Source\PSoC4/cyfitter_cfg.c **** 	CY_SET_XTND_REG32((void CYFAR *)CYREG_SAR_MUX_SWITCH_HW_CTRL, 0x00000003u);
 106              		.loc 1 266 0
 107 0006 024A     		ldr	r2, .L7+4
 108 0008 1360     		str	r3, [r2]
 267:.\Generated_Source\PSoC4/cyfitter_cfg.c **** 	/* Variable VDDA is selected; no pumps are enabled by default */
 268:.\Generated_Source\PSoC4/cyfitter_cfg.c **** }
 109              		.loc 1 268 0
 110              		@ sp needed
 111 000a 7047     		bx	lr
 112              	.L8:
 113              		.align	2
 114              	.L7:
 115 000c 00031A40 		.word	1075446528
 116 0010 40031A40 		.word	1075446592
 117              		.cfi_endproc
 118              	.LFE5:
 119              		.size	AnalogSetDefault, .-AnalogSetDefault
 120              		.section	.text.CYMEMZERO,"ax",%progbits
 121              		.align	2
 122              		.code	16
 123              		.thumb_func
 124              		.type	CYMEMZERO, %function
 125              	CYMEMZERO:
 126              	.LFB0:
  62:.\Generated_Source\PSoC4/cyfitter_cfg.c **** 	(void)memset(s, 0, n);
 127              		.loc 1 62 0
ARM GAS  C:\Users\Calin\AppData\Local\Temp\cc3CPSE4.s 			page 8


 128              		.cfi_startproc
 129              	.LVL12:
 130 0000 08B5     		push	{r3, lr}
 131              		.cfi_def_cfa_offset 8
 132              		.cfi_offset 3, -8
 133              		.cfi_offset 14, -4
 134 0002 0A1C     		mov	r2, r1
  63:.\Generated_Source\PSoC4/cyfitter_cfg.c **** }
 135              		.loc 1 63 0
 136 0004 0021     		mov	r1, #0
 137              	.LVL13:
 138 0006 FFF7FEFF 		bl	memset
 139              	.LVL14:
  64:.\Generated_Source\PSoC4/cyfitter_cfg.c **** CY_CFG_UNUSED
 140              		.loc 1 64 0
 141              		@ sp needed
 142 000a 08BD     		pop	{r3, pc}
 143              		.cfi_endproc
 144              	.LFE0:
 145              		.size	CYMEMZERO, .-CYMEMZERO
 146              		.section	.text.CYCONFIGCPYCODE,"ax",%progbits
 147              		.align	2
 148              		.code	16
 149              		.thumb_func
 150              		.type	CYCONFIGCPYCODE, %function
 151              	CYCONFIGCPYCODE:
 152              	.LFB2:
  76:.\Generated_Source\PSoC4/cyfitter_cfg.c **** 	(void)memcpy(dest, src, n);
 153              		.loc 1 76 0
 154              		.cfi_startproc
 155              	.LVL15:
 156 0000 08B5     		push	{r3, lr}
 157              		.cfi_def_cfa_offset 8
 158              		.cfi_offset 3, -8
 159              		.cfi_offset 14, -4
  77:.\Generated_Source\PSoC4/cyfitter_cfg.c **** }
 160              		.loc 1 77 0
 161 0002 FFF7FEFF 		bl	memcpy
 162              	.LVL16:
  78:.\Generated_Source\PSoC4/cyfitter_cfg.c **** 
 163              		.loc 1 78 0
 164              		@ sp needed
 165 0006 08BD     		pop	{r3, pc}
 166              		.cfi_endproc
 167              	.LFE2:
 168              		.size	CYCONFIGCPYCODE, .-CYCONFIGCPYCODE
 169              		.section	.psocinit,"ax",%progbits
 170              		.align	2
 171              		.code	16
 172              		.thumb_func
 173              		.type	ClockSetup, %function
 174              	ClockSetup:
 175              	.LFB4:
 188:.\Generated_Source\PSoC4/cyfitter_cfg.c **** 	/* Enable HALF_EN before trimming for the flash accelerator. */
 176              		.loc 1 188 0
 177              		.cfi_startproc
 178 0000 38B5     		push	{r3, r4, r5, lr}
ARM GAS  C:\Users\Calin\AppData\Local\Temp\cc3CPSE4.s 			page 9


 179              		.cfi_def_cfa_offset 16
 180              		.cfi_offset 3, -16
 181              		.cfi_offset 4, -12
 182              		.cfi_offset 5, -8
 183              		.cfi_offset 14, -4
 190:.\Generated_Source\PSoC4/cyfitter_cfg.c **** 
 184              		.loc 1 190 0
 185 0002 254C     		ldr	r4, .L12
 186 0004 2368     		ldr	r3, [r4]
 187 0006 8022     		mov	r2, #128
 188 0008 D202     		lsl	r2, r2, #11
 189 000a 1343     		orr	r3, r2
 190 000c 2360     		str	r3, [r4]
 193:.\Generated_Source\PSoC4/cyfitter_cfg.c **** 
 191              		.loc 1 193 0
 192 000e 1820     		mov	r0, #24
 193 0010 FFF7FEFF 		bl	CySysClkWriteImoFreq
 194              	.LVL17:
 196:.\Generated_Source\PSoC4/cyfitter_cfg.c **** 	/* CYDEV_CLK_ILO_CONFIG Starting address: CYDEV_CLK_ILO_CONFIG */
 195              		.loc 1 196 0
 196 0014 2268     		ldr	r2, [r4]
 197 0016 214B     		ldr	r3, .L12+4
 198 0018 1340     		and	r3, r2
 199 001a 2360     		str	r3, [r4]
 198:.\Generated_Source\PSoC4/cyfitter_cfg.c **** 
 200              		.loc 1 198 0
 201 001c 204A     		ldr	r2, .L12+8
 202 001e 214B     		ldr	r3, .L12+12
 203 0020 1A60     		str	r2, [r3]
 202:.\Generated_Source\PSoC4/cyfitter_cfg.c **** 	CY_SET_XTND_REG32((void CYFAR *)(CYREG_CLK_SELECT08), 0x00000021u);
 204              		.loc 1 202 0
 205 0022 2022     		mov	r2, #32
 206 0024 204B     		ldr	r3, .L12+16
 207 0026 1A60     		str	r2, [r3]
 203:.\Generated_Source\PSoC4/cyfitter_cfg.c **** 	CY_SET_XTND_REG32((void CYFAR *)(CYREG_CLK_SELECT09), 0x00000010u);
 208              		.loc 1 203 0
 209 0028 0132     		add	r2, r2, #1
 210 002a 204B     		ldr	r3, .L12+20
 211 002c 1A60     		str	r2, [r3]
 204:.\Generated_Source\PSoC4/cyfitter_cfg.c **** 	CY_SET_XTND_REG32((void CYFAR *)(CYREG_CLK_SELECT10), 0x00000010u);
 212              		.loc 1 204 0
 213 002e 1023     		mov	r3, #16
 214 0030 1F4A     		ldr	r2, .L12+24
 215 0032 1360     		str	r3, [r2]
 205:.\Generated_Source\PSoC4/cyfitter_cfg.c **** 	CY_SET_XTND_REG32((void CYFAR *)(CYREG_CLK_SELECT11), 0x00000010u);
 216              		.loc 1 205 0
 217 0034 1F4A     		ldr	r2, .L12+28
 218 0036 1360     		str	r3, [r2]
 206:.\Generated_Source\PSoC4/cyfitter_cfg.c **** 	CY_SET_XTND_REG32((void CYFAR *)(CYREG_CLK_SELECT13), 0x00000030u);
 219              		.loc 1 206 0
 220 0038 1F4A     		ldr	r2, .L12+32
 221 003a 1360     		str	r3, [r2]
 207:.\Generated_Source\PSoC4/cyfitter_cfg.c **** 	CY_SET_XTND_REG32((void CYFAR *)(CYREG_CLK_SELECT14), 0x00000022u);
 222              		.loc 1 207 0
 223 003c 3022     		mov	r2, #48
 224 003e 1F4B     		ldr	r3, .L12+36
 225 0040 1A60     		str	r2, [r3]
ARM GAS  C:\Users\Calin\AppData\Local\Temp\cc3CPSE4.s 			page 10


 208:.\Generated_Source\PSoC4/cyfitter_cfg.c **** 	CY_SET_XTND_REG32((void CYFAR *)(CYREG_CLK_SELECT15), 0x00000011u);
 226              		.loc 1 208 0
 227 0042 0E3A     		sub	r2, r2, #14
 228 0044 1E4B     		ldr	r3, .L12+40
 229 0046 1A60     		str	r2, [r3]
 209:.\Generated_Source\PSoC4/cyfitter_cfg.c **** 
 230              		.loc 1 209 0
 231 0048 113A     		sub	r2, r2, #17
 232 004a 1E4B     		ldr	r3, .L12+44
 233 004c 1A60     		str	r2, [r3]
 212:.\Generated_Source\PSoC4/cyfitter_cfg.c **** 
 234              		.loc 1 212 0
 235 004e 8222     		mov	r2, #130
 236 0050 1206     		lsl	r2, r2, #24
 237 0052 1D4B     		ldr	r3, .L12+48
 238 0054 1A60     		str	r2, [r3]
 215:.\Generated_Source\PSoC4/cyfitter_cfg.c **** 
 239              		.loc 1 215 0
 240 0056 0025     		mov	r5, #0
 241 0058 2560     		str	r5, [r4]
 218:.\Generated_Source\PSoC4/cyfitter_cfg.c **** 
 242              		.loc 1 218 0
 243 005a 8022     		mov	r2, #128
 244 005c 1206     		lsl	r2, r2, #24
 245 005e 1B4B     		ldr	r3, .L12+52
 246 0060 1A60     		str	r2, [r3]
 221:.\Generated_Source\PSoC4/cyfitter_cfg.c **** 
 247              		.loc 1 221 0
 248 0062 1B4A     		ldr	r2, .L12+56
 249 0064 1B4B     		ldr	r3, .L12+60
 250 0066 1A60     		str	r2, [r3]
 224:.\Generated_Source\PSoC4/cyfitter_cfg.c **** 
 251              		.loc 1 224 0
 252 0068 1B4B     		ldr	r3, .L12+64
 253 006a 1C4A     		ldr	r2, .L12+68
 254 006c 1360     		str	r3, [r2]
 227:.\Generated_Source\PSoC4/cyfitter_cfg.c **** 
 255              		.loc 1 227 0
 256 006e 1C49     		ldr	r1, .L12+72
 257 0070 1C4A     		ldr	r2, .L12+76
 258 0072 1160     		str	r1, [r2]
 230:.\Generated_Source\PSoC4/cyfitter_cfg.c **** 
 259              		.loc 1 230 0
 260 0074 1C49     		ldr	r1, .L12+80
 261 0076 1D4A     		ldr	r2, .L12+84
 262 0078 1160     		str	r1, [r2]
 233:.\Generated_Source\PSoC4/cyfitter_cfg.c **** 
 263              		.loc 1 233 0
 264 007a 1D4A     		ldr	r2, .L12+88
 265 007c 1360     		str	r3, [r2]
 236:.\Generated_Source\PSoC4/cyfitter_cfg.c **** 
 266              		.loc 1 236 0
 267 007e 1D4A     		ldr	r2, .L12+92
 268 0080 1D4B     		ldr	r3, .L12+96
 269 0082 1A60     		str	r2, [r3]
 238:.\Generated_Source\PSoC4/cyfitter_cfg.c **** 	CyIntEnable(9u);
 270              		.loc 1 238 0
ARM GAS  C:\Users\Calin\AppData\Local\Temp\cc3CPSE4.s 			page 11


 271 0084 0920     		mov	r0, #9
 272 0086 1D49     		ldr	r1, .L12+100
 273 0088 FFF7FEFF 		bl	CyIntSetVector
 274              	.LVL18:
 239:.\Generated_Source\PSoC4/cyfitter_cfg.c **** 	CY_SET_XTND_REG32((void CYFAR *)(CYREG_WDT_CONFIG), 0x00000000u);
 275              		.loc 1 239 0
 276 008c 0920     		mov	r0, #9
 277 008e FFF7FEFF 		bl	CyIntEnable
 278              	.LVL19:
 240:.\Generated_Source\PSoC4/cyfitter_cfg.c **** }
 279              		.loc 1 240 0
 280 0092 1B4B     		ldr	r3, .L12+104
 281 0094 1D60     		str	r5, [r3]
 241:.\Generated_Source\PSoC4/cyfitter_cfg.c **** 
 282              		.loc 1 241 0
 283              		@ sp needed
 284 0096 38BD     		pop	{r3, r4, r5, pc}
 285              	.L13:
 286              		.align	2
 287              	.L12:
 288 0098 00010B40 		.word	1074462976
 289 009c FFFFFBFF 		.word	-262145
 290 00a0 06000080 		.word	-2147483642
 291 00a4 04010B40 		.word	1074462980
 292 00a8 1C020240 		.word	1073873436
 293 00ac 20020240 		.word	1073873440
 294 00b0 24020240 		.word	1073873444
 295 00b4 28020240 		.word	1073873448
 296 00b8 2C020240 		.word	1073873452
 297 00bc 34020240 		.word	1073873460
 298 00c0 38020240 		.word	1073873464
 299 00c4 3C020240 		.word	1073873468
 300 00c8 08010B40 		.word	1074462984
 301 00cc 00000240 		.word	1073872896
 302 00d0 16000080 		.word	-2147483626
 303 00d4 40000240 		.word	1073872960
 304 00d8 76010080 		.word	-2147483274
 305 00dc 80000240 		.word	1073873024
 306 00e0 7F3E0080 		.word	-2147467649
 307 00e4 04000240 		.word	1073872900
 308 00e8 BF5D0080 		.word	-2147459649
 309 00ec 44000240 		.word	1073872964
 310 00f0 08000240 		.word	1073872904
 311 00f4 3F0100C0 		.word	-1073741505
 312 00f8 48000240 		.word	1073872968
 313 00fc 00000000 		.word	CySysWdtIsr
 314 0100 0C020B40 		.word	1074463244
 315              		.cfi_endproc
 316              	.LFE4:
 317              		.size	ClockSetup, .-ClockSetup
 318              		.section	.text.SetAnalogRoutingPumps,"ax",%progbits
 319              		.align	2
 320              		.global	SetAnalogRoutingPumps
 321              		.code	16
 322              		.thumb_func
 323              		.type	SetAnalogRoutingPumps, %function
 324              	SetAnalogRoutingPumps:
ARM GAS  C:\Users\Calin\AppData\Local\Temp\cc3CPSE4.s 			page 12


 325              	.LFB6:
 269:.\Generated_Source\PSoC4/cyfitter_cfg.c **** 
 270:.\Generated_Source\PSoC4/cyfitter_cfg.c **** 
 271:.\Generated_Source\PSoC4/cyfitter_cfg.c **** /*******************************************************************************
 272:.\Generated_Source\PSoC4/cyfitter_cfg.c **** * Function Name: SetAnalogRoutingPumps
 273:.\Generated_Source\PSoC4/cyfitter_cfg.c **** ********************************************************************************
 274:.\Generated_Source\PSoC4/cyfitter_cfg.c **** *
 275:.\Generated_Source\PSoC4/cyfitter_cfg.c **** * Summary:
 276:.\Generated_Source\PSoC4/cyfitter_cfg.c **** * Enables or disables the analog pumps feeding analog routing switches.
 277:.\Generated_Source\PSoC4/cyfitter_cfg.c **** * Intended to be called at startup, based on the Vdda system configuration;
 278:.\Generated_Source\PSoC4/cyfitter_cfg.c **** * may be called during operation when the user informs us that the Vdda voltage crossed the pump th
 279:.\Generated_Source\PSoC4/cyfitter_cfg.c **** *
 280:.\Generated_Source\PSoC4/cyfitter_cfg.c **** * Parameters:
 281:.\Generated_Source\PSoC4/cyfitter_cfg.c **** *  enabled - 1 to enable the pumps, 0 to disable the pumps
 282:.\Generated_Source\PSoC4/cyfitter_cfg.c **** *
 283:.\Generated_Source\PSoC4/cyfitter_cfg.c **** * Return:
 284:.\Generated_Source\PSoC4/cyfitter_cfg.c **** *  void
 285:.\Generated_Source\PSoC4/cyfitter_cfg.c **** *
 286:.\Generated_Source\PSoC4/cyfitter_cfg.c **** *******************************************************************************/
 287:.\Generated_Source\PSoC4/cyfitter_cfg.c **** void SetAnalogRoutingPumps(uint8 enabled)
 288:.\Generated_Source\PSoC4/cyfitter_cfg.c **** {
 326              		.loc 1 288 0
 327              		.cfi_startproc
 328              	.LVL20:
 289:.\Generated_Source\PSoC4/cyfitter_cfg.c **** 	uint32 regValue = CY_GET_XTND_REG32((void *)(CYREG_SAR_PUMP_CTRL));
 329              		.loc 1 289 0
 330 0000 064B     		ldr	r3, .L17
 331 0002 1B68     		ldr	r3, [r3]
 332              	.LVL21:
 290:.\Generated_Source\PSoC4/cyfitter_cfg.c **** 	if (enabled != 0u)
 333              		.loc 1 290 0
 334 0004 0028     		cmp	r0, #0
 335 0006 03D0     		beq	.L15
 291:.\Generated_Source\PSoC4/cyfitter_cfg.c **** 	{
 292:.\Generated_Source\PSoC4/cyfitter_cfg.c **** 		regValue |= 0x80000000u;
 336              		.loc 1 292 0
 337 0008 8022     		mov	r2, #128
 338 000a 1206     		lsl	r2, r2, #24
 339 000c 1343     		orr	r3, r2
 340              	.LVL22:
 341 000e 01E0     		b	.L16
 342              	.L15:
 293:.\Generated_Source\PSoC4/cyfitter_cfg.c **** 	}
 294:.\Generated_Source\PSoC4/cyfitter_cfg.c **** 	else
 295:.\Generated_Source\PSoC4/cyfitter_cfg.c **** 	{
 296:.\Generated_Source\PSoC4/cyfitter_cfg.c **** 		regValue &= ~0x80000000u;
 343              		.loc 1 296 0
 344 0010 5B00     		lsl	r3, r3, #1
 345              	.LVL23:
 346 0012 5B08     		lsr	r3, r3, #1
 347              	.LVL24:
 348              	.L16:
 297:.\Generated_Source\PSoC4/cyfitter_cfg.c **** 	}
 298:.\Generated_Source\PSoC4/cyfitter_cfg.c **** 	CY_SET_XTND_REG32((void *)(CYREG_SAR_PUMP_CTRL), regValue);
 349              		.loc 1 298 0
 350 0014 014A     		ldr	r2, .L17
 351 0016 1360     		str	r3, [r2]
ARM GAS  C:\Users\Calin\AppData\Local\Temp\cc3CPSE4.s 			page 13


 299:.\Generated_Source\PSoC4/cyfitter_cfg.c **** }
 352              		.loc 1 299 0
 353              		@ sp needed
 354 0018 7047     		bx	lr
 355              	.L18:
 356 001a C046     		.align	2
 357              	.L17:
 358 001c 80031A40 		.word	1075446656
 359              		.cfi_endproc
 360              	.LFE6:
 361              		.size	SetAnalogRoutingPumps, .-SetAnalogRoutingPumps
 362              		.section	.psocinit
 363              		.align	2
 364              		.global	cyfitter_cfg
 365              		.code	16
 366              		.thumb_func
 367              		.type	cyfitter_cfg, %function
 368              	cyfitter_cfg:
 369              	.LFB7:
 300:.\Generated_Source\PSoC4/cyfitter_cfg.c **** 
 301:.\Generated_Source\PSoC4/cyfitter_cfg.c **** #define CY_AMUX_UNUSED CYREG_CM0_ROM_DWT
 302:.\Generated_Source\PSoC4/cyfitter_cfg.c **** 
 303:.\Generated_Source\PSoC4/cyfitter_cfg.c **** 
 304:.\Generated_Source\PSoC4/cyfitter_cfg.c **** /*******************************************************************************
 305:.\Generated_Source\PSoC4/cyfitter_cfg.c **** * Function Name: cyfitter_cfg
 306:.\Generated_Source\PSoC4/cyfitter_cfg.c **** ********************************************************************************
 307:.\Generated_Source\PSoC4/cyfitter_cfg.c **** * Summary:
 308:.\Generated_Source\PSoC4/cyfitter_cfg.c **** *  This function is called by the start-up code for the selected device. It
 309:.\Generated_Source\PSoC4/cyfitter_cfg.c **** *  performs all of the necessary device configuration based on the design
 310:.\Generated_Source\PSoC4/cyfitter_cfg.c **** *  settings.  This includes settings from the Design Wide Resources (DWR) such
 311:.\Generated_Source\PSoC4/cyfitter_cfg.c **** *  as Clocks and Pins as well as any component configuration that is necessary.
 312:.\Generated_Source\PSoC4/cyfitter_cfg.c **** *
 313:.\Generated_Source\PSoC4/cyfitter_cfg.c **** * Parameters:  
 314:.\Generated_Source\PSoC4/cyfitter_cfg.c **** *   void
 315:.\Generated_Source\PSoC4/cyfitter_cfg.c **** *
 316:.\Generated_Source\PSoC4/cyfitter_cfg.c **** * Return:
 317:.\Generated_Source\PSoC4/cyfitter_cfg.c **** *   void
 318:.\Generated_Source\PSoC4/cyfitter_cfg.c **** *
 319:.\Generated_Source\PSoC4/cyfitter_cfg.c **** *******************************************************************************/
 320:.\Generated_Source\PSoC4/cyfitter_cfg.c **** CY_CFG_SECTION
 321:.\Generated_Source\PSoC4/cyfitter_cfg.c **** void cyfitter_cfg(void)
 322:.\Generated_Source\PSoC4/cyfitter_cfg.c **** {
 370              		.loc 1 322 0
 371              		.cfi_startproc
 372 0104 38B5     		push	{r3, r4, r5, lr}
 373              		.cfi_def_cfa_offset 16
 374              		.cfi_offset 3, -16
 375              		.cfi_offset 4, -12
 376              		.cfi_offset 5, -8
 377              		.cfi_offset 14, -4
 323:.\Generated_Source\PSoC4/cyfitter_cfg.c **** 	/* Disable interrupts by default. Let user enable if/when they want. */
 324:.\Generated_Source\PSoC4/cyfitter_cfg.c **** 	CyGlobalIntDisable;
 378              		.loc 1 324 0
 379              	@ 324 ".\Generated_Source\PSoC4\cyfitter_cfg.c" 1
 380 0106 72B6     		CPSID   i
 381              	@ 0 "" 2
 325:.\Generated_Source\PSoC4/cyfitter_cfg.c **** 
ARM GAS  C:\Users\Calin\AppData\Local\Temp\cc3CPSE4.s 			page 14


 326:.\Generated_Source\PSoC4/cyfitter_cfg.c **** 	/* Enable the clock in the interrupt controller for the routed interrupts */
 327:.\Generated_Source\PSoC4/cyfitter_cfg.c **** 	CY_SET_REG8((void *)CYREG_UDB_UDBIF_INT_CLK_CTL, 0x01u);
 382              		.loc 1 327 0
 383              		.code	16
 384 0108 0122     		mov	r2, #1
 385 010a 464B     		ldr	r3, .L24
 386 010c 1A70     		strb	r2, [r3]
 387              	.LVL25:
 388              	.LBB3:
 328:.\Generated_Source\PSoC4/cyfitter_cfg.c **** 	{
 329:.\Generated_Source\PSoC4/cyfitter_cfg.c **** 		static const uint32 CYCODE cy_cfg_addr_table[] = {
 330:.\Generated_Source\PSoC4/cyfitter_cfg.c **** 			0x400F0002u, /* Base address: 0x400F0000 Count: 2 */
 331:.\Generated_Source\PSoC4/cyfitter_cfg.c **** 			0x400F3047u, /* Base address: 0x400F3000 Count: 71 */
 332:.\Generated_Source\PSoC4/cyfitter_cfg.c **** 			0x400F3129u, /* Base address: 0x400F3100 Count: 41 */
 333:.\Generated_Source\PSoC4/cyfitter_cfg.c **** 			0x400F3204u, /* Base address: 0x400F3200 Count: 4 */
 334:.\Generated_Source\PSoC4/cyfitter_cfg.c **** 			0x400F3348u, /* Base address: 0x400F3300 Count: 72 */
 335:.\Generated_Source\PSoC4/cyfitter_cfg.c **** 			0x400F400Eu, /* Base address: 0x400F4000 Count: 14 */
 336:.\Generated_Source\PSoC4/cyfitter_cfg.c **** 			0x400F410Fu, /* Base address: 0x400F4100 Count: 15 */
 337:.\Generated_Source\PSoC4/cyfitter_cfg.c **** 			0x400F4206u, /* Base address: 0x400F4200 Count: 6 */
 338:.\Generated_Source\PSoC4/cyfitter_cfg.c **** 			0x400F4310u, /* Base address: 0x400F4300 Count: 16 */
 339:.\Generated_Source\PSoC4/cyfitter_cfg.c **** 			0x400F6002u, /* Base address: 0x400F6000 Count: 2 */
 340:.\Generated_Source\PSoC4/cyfitter_cfg.c **** 		};
 341:.\Generated_Source\PSoC4/cyfitter_cfg.c **** 
 342:.\Generated_Source\PSoC4/cyfitter_cfg.c **** 		static const cy_cfg_addrvalue_t CYCODE cy_cfg_data_table[] = {
 343:.\Generated_Source\PSoC4/cyfitter_cfg.c **** 			{0x80u, 0x7Fu},
 344:.\Generated_Source\PSoC4/cyfitter_cfg.c **** 			{0x82u, 0x0Fu},
 345:.\Generated_Source\PSoC4/cyfitter_cfg.c **** 			{0x06u, 0x02u},
 346:.\Generated_Source\PSoC4/cyfitter_cfg.c **** 			{0x0Cu, 0x08u},
 347:.\Generated_Source\PSoC4/cyfitter_cfg.c **** 			{0x0Eu, 0x34u},
 348:.\Generated_Source\PSoC4/cyfitter_cfg.c **** 			{0x10u, 0x14u},
 349:.\Generated_Source\PSoC4/cyfitter_cfg.c **** 			{0x12u, 0x2Bu},
 350:.\Generated_Source\PSoC4/cyfitter_cfg.c **** 			{0x15u, 0x01u},
 351:.\Generated_Source\PSoC4/cyfitter_cfg.c **** 			{0x17u, 0x02u},
 352:.\Generated_Source\PSoC4/cyfitter_cfg.c **** 			{0x18u, 0x24u},
 353:.\Generated_Source\PSoC4/cyfitter_cfg.c **** 			{0x1Au, 0x1Bu},
 354:.\Generated_Source\PSoC4/cyfitter_cfg.c **** 			{0x1Bu, 0x01u},
 355:.\Generated_Source\PSoC4/cyfitter_cfg.c **** 			{0x1Cu, 0x0Du},
 356:.\Generated_Source\PSoC4/cyfitter_cfg.c **** 			{0x1Eu, 0x30u},
 357:.\Generated_Source\PSoC4/cyfitter_cfg.c **** 			{0x2Fu, 0x04u},
 358:.\Generated_Source\PSoC4/cyfitter_cfg.c **** 			{0x30u, 0x3Cu},
 359:.\Generated_Source\PSoC4/cyfitter_cfg.c **** 			{0x33u, 0x04u},
 360:.\Generated_Source\PSoC4/cyfitter_cfg.c **** 			{0x34u, 0x03u},
 361:.\Generated_Source\PSoC4/cyfitter_cfg.c **** 			{0x35u, 0x02u},
 362:.\Generated_Source\PSoC4/cyfitter_cfg.c **** 			{0x37u, 0x01u},
 363:.\Generated_Source\PSoC4/cyfitter_cfg.c **** 			{0x3Au, 0x02u},
 364:.\Generated_Source\PSoC4/cyfitter_cfg.c **** 			{0x56u, 0x02u},
 365:.\Generated_Source\PSoC4/cyfitter_cfg.c **** 			{0x58u, 0x04u},
 366:.\Generated_Source\PSoC4/cyfitter_cfg.c **** 			{0x59u, 0x04u},
 367:.\Generated_Source\PSoC4/cyfitter_cfg.c **** 			{0x5Bu, 0x04u},
 368:.\Generated_Source\PSoC4/cyfitter_cfg.c **** 			{0x5Cu, 0x21u},
 369:.\Generated_Source\PSoC4/cyfitter_cfg.c **** 			{0x5Du, 0x30u},
 370:.\Generated_Source\PSoC4/cyfitter_cfg.c **** 			{0x5Fu, 0x01u},
 371:.\Generated_Source\PSoC4/cyfitter_cfg.c **** 			{0x80u, 0x18u},
 372:.\Generated_Source\PSoC4/cyfitter_cfg.c **** 			{0x81u, 0x04u},
 373:.\Generated_Source\PSoC4/cyfitter_cfg.c **** 			{0x82u, 0x02u},
 374:.\Generated_Source\PSoC4/cyfitter_cfg.c **** 			{0x84u, 0x18u},
 375:.\Generated_Source\PSoC4/cyfitter_cfg.c **** 			{0x85u, 0x04u},
ARM GAS  C:\Users\Calin\AppData\Local\Temp\cc3CPSE4.s 			page 15


 376:.\Generated_Source\PSoC4/cyfitter_cfg.c **** 			{0x88u, 0x9Cu},
 377:.\Generated_Source\PSoC4/cyfitter_cfg.c **** 			{0x89u, 0x01u},
 378:.\Generated_Source\PSoC4/cyfitter_cfg.c **** 			{0x8Au, 0x03u},
 379:.\Generated_Source\PSoC4/cyfitter_cfg.c **** 			{0x8Cu, 0x1Au},
 380:.\Generated_Source\PSoC4/cyfitter_cfg.c **** 			{0x90u, 0xC1u},
 381:.\Generated_Source\PSoC4/cyfitter_cfg.c **** 			{0x91u, 0x07u},
 382:.\Generated_Source\PSoC4/cyfitter_cfg.c **** 			{0x92u, 0x38u},
 383:.\Generated_Source\PSoC4/cyfitter_cfg.c **** 			{0x93u, 0x38u},
 384:.\Generated_Source\PSoC4/cyfitter_cfg.c **** 			{0x97u, 0x04u},
 385:.\Generated_Source\PSoC4/cyfitter_cfg.c **** 			{0x98u, 0x18u},
 386:.\Generated_Source\PSoC4/cyfitter_cfg.c **** 			{0x99u, 0x56u},
 387:.\Generated_Source\PSoC4/cyfitter_cfg.c **** 			{0x9Au, 0x02u},
 388:.\Generated_Source\PSoC4/cyfitter_cfg.c **** 			{0x9Bu, 0x09u},
 389:.\Generated_Source\PSoC4/cyfitter_cfg.c **** 			{0x9Cu, 0x33u},
 390:.\Generated_Source\PSoC4/cyfitter_cfg.c **** 			{0x9Du, 0x04u},
 391:.\Generated_Source\PSoC4/cyfitter_cfg.c **** 			{0x9Eu, 0x44u},
 392:.\Generated_Source\PSoC4/cyfitter_cfg.c **** 			{0xA0u, 0x1Au},
 393:.\Generated_Source\PSoC4/cyfitter_cfg.c **** 			{0xA1u, 0x04u},
 394:.\Generated_Source\PSoC4/cyfitter_cfg.c **** 			{0xA4u, 0x02u},
 395:.\Generated_Source\PSoC4/cyfitter_cfg.c **** 			{0xA5u, 0x04u},
 396:.\Generated_Source\PSoC4/cyfitter_cfg.c **** 			{0xA6u, 0x18u},
 397:.\Generated_Source\PSoC4/cyfitter_cfg.c **** 			{0xA9u, 0x60u},
 398:.\Generated_Source\PSoC4/cyfitter_cfg.c **** 			{0xACu, 0x82u},
 399:.\Generated_Source\PSoC4/cyfitter_cfg.c **** 			{0xADu, 0x0Au},
 400:.\Generated_Source\PSoC4/cyfitter_cfg.c **** 			{0xAFu, 0x10u},
 401:.\Generated_Source\PSoC4/cyfitter_cfg.c **** 			{0xB0u, 0x0Fu},
 402:.\Generated_Source\PSoC4/cyfitter_cfg.c **** 			{0xB1u, 0x08u},
 403:.\Generated_Source\PSoC4/cyfitter_cfg.c **** 			{0xB4u, 0xE0u},
 404:.\Generated_Source\PSoC4/cyfitter_cfg.c **** 			{0xB5u, 0x7Fu},
 405:.\Generated_Source\PSoC4/cyfitter_cfg.c **** 			{0xB6u, 0x13u},
 406:.\Generated_Source\PSoC4/cyfitter_cfg.c **** 			{0xB9u, 0x20u},
 407:.\Generated_Source\PSoC4/cyfitter_cfg.c **** 			{0xBAu, 0x22u},
 408:.\Generated_Source\PSoC4/cyfitter_cfg.c **** 			{0xBFu, 0x01u},
 409:.\Generated_Source\PSoC4/cyfitter_cfg.c **** 			{0xD4u, 0x40u},
 410:.\Generated_Source\PSoC4/cyfitter_cfg.c **** 			{0xD8u, 0x04u},
 411:.\Generated_Source\PSoC4/cyfitter_cfg.c **** 			{0xD9u, 0x04u},
 412:.\Generated_Source\PSoC4/cyfitter_cfg.c **** 			{0xDBu, 0x04u},
 413:.\Generated_Source\PSoC4/cyfitter_cfg.c **** 			{0xDCu, 0x11u},
 414:.\Generated_Source\PSoC4/cyfitter_cfg.c **** 			{0xDDu, 0x10u},
 415:.\Generated_Source\PSoC4/cyfitter_cfg.c **** 			{0xDFu, 0x01u},
 416:.\Generated_Source\PSoC4/cyfitter_cfg.c **** 			{0x00u, 0x44u},
 417:.\Generated_Source\PSoC4/cyfitter_cfg.c **** 			{0x04u, 0x0Au},
 418:.\Generated_Source\PSoC4/cyfitter_cfg.c **** 			{0x05u, 0x18u},
 419:.\Generated_Source\PSoC4/cyfitter_cfg.c **** 			{0x06u, 0x02u},
 420:.\Generated_Source\PSoC4/cyfitter_cfg.c **** 			{0x09u, 0xA2u},
 421:.\Generated_Source\PSoC4/cyfitter_cfg.c **** 			{0x0Du, 0x02u},
 422:.\Generated_Source\PSoC4/cyfitter_cfg.c **** 			{0x0Eu, 0x06u},
 423:.\Generated_Source\PSoC4/cyfitter_cfg.c **** 			{0x15u, 0x01u},
 424:.\Generated_Source\PSoC4/cyfitter_cfg.c **** 			{0x16u, 0x01u},
 425:.\Generated_Source\PSoC4/cyfitter_cfg.c **** 			{0x17u, 0x04u},
 426:.\Generated_Source\PSoC4/cyfitter_cfg.c **** 			{0x18u, 0x44u},
 427:.\Generated_Source\PSoC4/cyfitter_cfg.c **** 			{0x19u, 0x02u},
 428:.\Generated_Source\PSoC4/cyfitter_cfg.c **** 			{0x1Du, 0xB2u},
 429:.\Generated_Source\PSoC4/cyfitter_cfg.c **** 			{0x1Eu, 0x0Au},
 430:.\Generated_Source\PSoC4/cyfitter_cfg.c **** 			{0x1Fu, 0x02u},
 431:.\Generated_Source\PSoC4/cyfitter_cfg.c **** 			{0x22u, 0x18u},
 432:.\Generated_Source\PSoC4/cyfitter_cfg.c **** 			{0x23u, 0x01u},
ARM GAS  C:\Users\Calin\AppData\Local\Temp\cc3CPSE4.s 			page 16


 433:.\Generated_Source\PSoC4/cyfitter_cfg.c **** 			{0x25u, 0x10u},
 434:.\Generated_Source\PSoC4/cyfitter_cfg.c **** 			{0x27u, 0x40u},
 435:.\Generated_Source\PSoC4/cyfitter_cfg.c **** 			{0x28u, 0x02u},
 436:.\Generated_Source\PSoC4/cyfitter_cfg.c **** 			{0x2Du, 0x08u},
 437:.\Generated_Source\PSoC4/cyfitter_cfg.c **** 			{0x2Eu, 0x02u},
 438:.\Generated_Source\PSoC4/cyfitter_cfg.c **** 			{0x2Fu, 0x0Au},
 439:.\Generated_Source\PSoC4/cyfitter_cfg.c **** 			{0x32u, 0x18u},
 440:.\Generated_Source\PSoC4/cyfitter_cfg.c **** 			{0x35u, 0x30u},
 441:.\Generated_Source\PSoC4/cyfitter_cfg.c **** 			{0x36u, 0x41u},
 442:.\Generated_Source\PSoC4/cyfitter_cfg.c **** 			{0x37u, 0x04u},
 443:.\Generated_Source\PSoC4/cyfitter_cfg.c **** 			{0x3Du, 0x21u},
 444:.\Generated_Source\PSoC4/cyfitter_cfg.c **** 			{0x3Eu, 0x04u},
 445:.\Generated_Source\PSoC4/cyfitter_cfg.c **** 			{0x65u, 0x04u},
 446:.\Generated_Source\PSoC4/cyfitter_cfg.c **** 			{0x66u, 0x60u},
 447:.\Generated_Source\PSoC4/cyfitter_cfg.c **** 			{0x73u, 0x40u},
 448:.\Generated_Source\PSoC4/cyfitter_cfg.c **** 			{0x8Du, 0x10u},
 449:.\Generated_Source\PSoC4/cyfitter_cfg.c **** 			{0xC0u, 0xF5u},
 450:.\Generated_Source\PSoC4/cyfitter_cfg.c **** 			{0xC2u, 0xDBu},
 451:.\Generated_Source\PSoC4/cyfitter_cfg.c **** 			{0xC4u, 0xB0u},
 452:.\Generated_Source\PSoC4/cyfitter_cfg.c **** 			{0xCAu, 0xF8u},
 453:.\Generated_Source\PSoC4/cyfitter_cfg.c **** 			{0xCCu, 0xF6u},
 454:.\Generated_Source\PSoC4/cyfitter_cfg.c **** 			{0xCEu, 0xE0u},
 455:.\Generated_Source\PSoC4/cyfitter_cfg.c **** 			{0xD8u, 0x70u},
 456:.\Generated_Source\PSoC4/cyfitter_cfg.c **** 			{0xE6u, 0x10u},
 457:.\Generated_Source\PSoC4/cyfitter_cfg.c **** 			{0xD4u, 0x09u},
 458:.\Generated_Source\PSoC4/cyfitter_cfg.c **** 			{0xDBu, 0x04u},
 459:.\Generated_Source\PSoC4/cyfitter_cfg.c **** 			{0xDDu, 0x10u},
 460:.\Generated_Source\PSoC4/cyfitter_cfg.c **** 			{0xDFu, 0x01u},
 461:.\Generated_Source\PSoC4/cyfitter_cfg.c **** 			{0x04u, 0x06u},
 462:.\Generated_Source\PSoC4/cyfitter_cfg.c **** 			{0x06u, 0x02u},
 463:.\Generated_Source\PSoC4/cyfitter_cfg.c **** 			{0x07u, 0x04u},
 464:.\Generated_Source\PSoC4/cyfitter_cfg.c **** 			{0x0Du, 0x82u},
 465:.\Generated_Source\PSoC4/cyfitter_cfg.c **** 			{0x0Eu, 0x08u},
 466:.\Generated_Source\PSoC4/cyfitter_cfg.c **** 			{0x15u, 0x05u},
 467:.\Generated_Source\PSoC4/cyfitter_cfg.c **** 			{0x1Cu, 0x14u},
 468:.\Generated_Source\PSoC4/cyfitter_cfg.c **** 			{0x1Du, 0x41u},
 469:.\Generated_Source\PSoC4/cyfitter_cfg.c **** 			{0x24u, 0x08u},
 470:.\Generated_Source\PSoC4/cyfitter_cfg.c **** 			{0x25u, 0x08u},
 471:.\Generated_Source\PSoC4/cyfitter_cfg.c **** 			{0x26u, 0xA0u},
 472:.\Generated_Source\PSoC4/cyfitter_cfg.c **** 			{0x2Du, 0x21u},
 473:.\Generated_Source\PSoC4/cyfitter_cfg.c **** 			{0x2Fu, 0x12u},
 474:.\Generated_Source\PSoC4/cyfitter_cfg.c **** 			{0x31u, 0x0Cu},
 475:.\Generated_Source\PSoC4/cyfitter_cfg.c **** 			{0x36u, 0xA1u},
 476:.\Generated_Source\PSoC4/cyfitter_cfg.c **** 			{0x37u, 0x04u},
 477:.\Generated_Source\PSoC4/cyfitter_cfg.c **** 			{0x38u, 0x10u},
 478:.\Generated_Source\PSoC4/cyfitter_cfg.c **** 			{0x3Au, 0x10u},
 479:.\Generated_Source\PSoC4/cyfitter_cfg.c **** 			{0x3Eu, 0x06u},
 480:.\Generated_Source\PSoC4/cyfitter_cfg.c **** 			{0x3Fu, 0x80u},
 481:.\Generated_Source\PSoC4/cyfitter_cfg.c **** 			{0x45u, 0x82u},
 482:.\Generated_Source\PSoC4/cyfitter_cfg.c **** 			{0x46u, 0x10u},
 483:.\Generated_Source\PSoC4/cyfitter_cfg.c **** 			{0x4Du, 0x28u},
 484:.\Generated_Source\PSoC4/cyfitter_cfg.c **** 			{0x4Eu, 0x02u},
 485:.\Generated_Source\PSoC4/cyfitter_cfg.c **** 			{0x54u, 0x01u},
 486:.\Generated_Source\PSoC4/cyfitter_cfg.c **** 			{0x56u, 0x61u},
 487:.\Generated_Source\PSoC4/cyfitter_cfg.c **** 			{0x57u, 0x48u},
 488:.\Generated_Source\PSoC4/cyfitter_cfg.c **** 			{0x58u, 0x20u},
 489:.\Generated_Source\PSoC4/cyfitter_cfg.c **** 			{0x59u, 0x09u},
ARM GAS  C:\Users\Calin\AppData\Local\Temp\cc3CPSE4.s 			page 17


 490:.\Generated_Source\PSoC4/cyfitter_cfg.c **** 			{0x5Bu, 0x40u},
 491:.\Generated_Source\PSoC4/cyfitter_cfg.c **** 			{0x61u, 0x40u},
 492:.\Generated_Source\PSoC4/cyfitter_cfg.c **** 			{0x65u, 0x02u},
 493:.\Generated_Source\PSoC4/cyfitter_cfg.c **** 			{0x6Cu, 0x01u},
 494:.\Generated_Source\PSoC4/cyfitter_cfg.c **** 			{0x6Du, 0x05u},
 495:.\Generated_Source\PSoC4/cyfitter_cfg.c **** 			{0x6Eu, 0x84u},
 496:.\Generated_Source\PSoC4/cyfitter_cfg.c **** 			{0x6Fu, 0x04u},
 497:.\Generated_Source\PSoC4/cyfitter_cfg.c **** 			{0x76u, 0x02u},
 498:.\Generated_Source\PSoC4/cyfitter_cfg.c **** 			{0x84u, 0x21u},
 499:.\Generated_Source\PSoC4/cyfitter_cfg.c **** 			{0x86u, 0x40u},
 500:.\Generated_Source\PSoC4/cyfitter_cfg.c **** 			{0x87u, 0x10u},
 501:.\Generated_Source\PSoC4/cyfitter_cfg.c **** 			{0x8Au, 0x02u},
 502:.\Generated_Source\PSoC4/cyfitter_cfg.c **** 			{0x8Cu, 0x04u},
 503:.\Generated_Source\PSoC4/cyfitter_cfg.c **** 			{0x94u, 0x0Au},
 504:.\Generated_Source\PSoC4/cyfitter_cfg.c **** 			{0x95u, 0x01u},
 505:.\Generated_Source\PSoC4/cyfitter_cfg.c **** 			{0x96u, 0x04u},
 506:.\Generated_Source\PSoC4/cyfitter_cfg.c **** 			{0x99u, 0x22u},
 507:.\Generated_Source\PSoC4/cyfitter_cfg.c **** 			{0x9Bu, 0x40u},
 508:.\Generated_Source\PSoC4/cyfitter_cfg.c **** 			{0x9Du, 0x04u},
 509:.\Generated_Source\PSoC4/cyfitter_cfg.c **** 			{0x9Eu, 0x63u},
 510:.\Generated_Source\PSoC4/cyfitter_cfg.c **** 			{0x9Fu, 0x04u},
 511:.\Generated_Source\PSoC4/cyfitter_cfg.c **** 			{0xA1u, 0x82u},
 512:.\Generated_Source\PSoC4/cyfitter_cfg.c **** 			{0xA2u, 0x05u},
 513:.\Generated_Source\PSoC4/cyfitter_cfg.c **** 			{0xA3u, 0x02u},
 514:.\Generated_Source\PSoC4/cyfitter_cfg.c **** 			{0xA6u, 0x40u},
 515:.\Generated_Source\PSoC4/cyfitter_cfg.c **** 			{0xA7u, 0x08u},
 516:.\Generated_Source\PSoC4/cyfitter_cfg.c **** 			{0xABu, 0x01u},
 517:.\Generated_Source\PSoC4/cyfitter_cfg.c **** 			{0xB3u, 0x40u},
 518:.\Generated_Source\PSoC4/cyfitter_cfg.c **** 			{0xB4u, 0x06u},
 519:.\Generated_Source\PSoC4/cyfitter_cfg.c **** 			{0xC0u, 0xF0u},
 520:.\Generated_Source\PSoC4/cyfitter_cfg.c **** 			{0xC2u, 0xD0u},
 521:.\Generated_Source\PSoC4/cyfitter_cfg.c **** 			{0xC4u, 0x30u},
 522:.\Generated_Source\PSoC4/cyfitter_cfg.c **** 			{0xCAu, 0xF0u},
 523:.\Generated_Source\PSoC4/cyfitter_cfg.c **** 			{0xCCu, 0xF0u},
 524:.\Generated_Source\PSoC4/cyfitter_cfg.c **** 			{0xCEu, 0xD0u},
 525:.\Generated_Source\PSoC4/cyfitter_cfg.c **** 			{0xD0u, 0xD0u},
 526:.\Generated_Source\PSoC4/cyfitter_cfg.c **** 			{0xD2u, 0x30u},
 527:.\Generated_Source\PSoC4/cyfitter_cfg.c **** 			{0xD6u, 0x0Fu},
 528:.\Generated_Source\PSoC4/cyfitter_cfg.c **** 			{0xD8u, 0x88u},
 529:.\Generated_Source\PSoC4/cyfitter_cfg.c **** 			{0xE2u, 0x01u},
 530:.\Generated_Source\PSoC4/cyfitter_cfg.c **** 			{0xE6u, 0x40u},
 531:.\Generated_Source\PSoC4/cyfitter_cfg.c **** 			{0xEAu, 0x20u},
 532:.\Generated_Source\PSoC4/cyfitter_cfg.c **** 			{0xEEu, 0x40u},
 533:.\Generated_Source\PSoC4/cyfitter_cfg.c **** 			{0x2Cu, 0x20u},
 534:.\Generated_Source\PSoC4/cyfitter_cfg.c **** 			{0x50u, 0x10u},
 535:.\Generated_Source\PSoC4/cyfitter_cfg.c **** 			{0x54u, 0x02u},
 536:.\Generated_Source\PSoC4/cyfitter_cfg.c **** 			{0x5Bu, 0x80u},
 537:.\Generated_Source\PSoC4/cyfitter_cfg.c **** 			{0x5Cu, 0x01u},
 538:.\Generated_Source\PSoC4/cyfitter_cfg.c **** 			{0x69u, 0x02u},
 539:.\Generated_Source\PSoC4/cyfitter_cfg.c **** 			{0x6Cu, 0x20u},
 540:.\Generated_Source\PSoC4/cyfitter_cfg.c **** 			{0x77u, 0x04u},
 541:.\Generated_Source\PSoC4/cyfitter_cfg.c **** 			{0x8Cu, 0x01u},
 542:.\Generated_Source\PSoC4/cyfitter_cfg.c **** 			{0xCAu, 0x80u},
 543:.\Generated_Source\PSoC4/cyfitter_cfg.c **** 			{0xD4u, 0xA0u},
 544:.\Generated_Source\PSoC4/cyfitter_cfg.c **** 			{0xD6u, 0xA0u},
 545:.\Generated_Source\PSoC4/cyfitter_cfg.c **** 			{0xDAu, 0x80u},
 546:.\Generated_Source\PSoC4/cyfitter_cfg.c **** 			{0xDCu, 0x60u},
ARM GAS  C:\Users\Calin\AppData\Local\Temp\cc3CPSE4.s 			page 18


 547:.\Generated_Source\PSoC4/cyfitter_cfg.c **** 			{0x01u, 0x40u},
 548:.\Generated_Source\PSoC4/cyfitter_cfg.c **** 			{0x05u, 0x40u},
 549:.\Generated_Source\PSoC4/cyfitter_cfg.c **** 			{0x49u, 0x40u},
 550:.\Generated_Source\PSoC4/cyfitter_cfg.c **** 			{0x4Du, 0x40u},
 551:.\Generated_Source\PSoC4/cyfitter_cfg.c **** 			{0x83u, 0x80u},
 552:.\Generated_Source\PSoC4/cyfitter_cfg.c **** 			{0x8Cu, 0x10u},
 553:.\Generated_Source\PSoC4/cyfitter_cfg.c **** 			{0x94u, 0x20u},
 554:.\Generated_Source\PSoC4/cyfitter_cfg.c **** 			{0x9Fu, 0x80u},
 555:.\Generated_Source\PSoC4/cyfitter_cfg.c **** 			{0xABu, 0x04u},
 556:.\Generated_Source\PSoC4/cyfitter_cfg.c **** 			{0xB1u, 0x01u},
 557:.\Generated_Source\PSoC4/cyfitter_cfg.c **** 			{0xB4u, 0x02u},
 558:.\Generated_Source\PSoC4/cyfitter_cfg.c **** 			{0xC0u, 0xC0u},
 559:.\Generated_Source\PSoC4/cyfitter_cfg.c **** 			{0xD2u, 0x30u},
 560:.\Generated_Source\PSoC4/cyfitter_cfg.c **** 			{0xE2u, 0x80u},
 561:.\Generated_Source\PSoC4/cyfitter_cfg.c **** 			{0xEAu, 0x80u},
 562:.\Generated_Source\PSoC4/cyfitter_cfg.c **** 			{0x05u, 0x20u},
 563:.\Generated_Source\PSoC4/cyfitter_cfg.c **** 			{0x60u, 0x01u},
 564:.\Generated_Source\PSoC4/cyfitter_cfg.c **** 			{0x6Bu, 0x02u},
 565:.\Generated_Source\PSoC4/cyfitter_cfg.c **** 			{0xC0u, 0x01u},
 566:.\Generated_Source\PSoC4/cyfitter_cfg.c **** 			{0xD6u, 0x02u},
 567:.\Generated_Source\PSoC4/cyfitter_cfg.c **** 			{0xDAu, 0x02u},
 568:.\Generated_Source\PSoC4/cyfitter_cfg.c **** 			{0x07u, 0x20u},
 569:.\Generated_Source\PSoC4/cyfitter_cfg.c **** 			{0x18u, 0x01u},
 570:.\Generated_Source\PSoC4/cyfitter_cfg.c **** 			{0x1Cu, 0x08u},
 571:.\Generated_Source\PSoC4/cyfitter_cfg.c **** 			{0x1Eu, 0x10u},
 572:.\Generated_Source\PSoC4/cyfitter_cfg.c **** 			{0x54u, 0x04u},
 573:.\Generated_Source\PSoC4/cyfitter_cfg.c **** 			{0x82u, 0x10u},
 574:.\Generated_Source\PSoC4/cyfitter_cfg.c **** 			{0x8Bu, 0x20u},
 575:.\Generated_Source\PSoC4/cyfitter_cfg.c **** 			{0x94u, 0x01u},
 576:.\Generated_Source\PSoC4/cyfitter_cfg.c **** 			{0xB3u, 0x02u},
 577:.\Generated_Source\PSoC4/cyfitter_cfg.c **** 			{0xB5u, 0x20u},
 578:.\Generated_Source\PSoC4/cyfitter_cfg.c **** 			{0xC0u, 0x04u},
 579:.\Generated_Source\PSoC4/cyfitter_cfg.c **** 			{0xC6u, 0x07u},
 580:.\Generated_Source\PSoC4/cyfitter_cfg.c **** 			{0xD4u, 0x02u},
 581:.\Generated_Source\PSoC4/cyfitter_cfg.c **** 			{0xE6u, 0x04u},
 582:.\Generated_Source\PSoC4/cyfitter_cfg.c **** 			{0xE8u, 0x04u},
 583:.\Generated_Source\PSoC4/cyfitter_cfg.c **** 			{0xEAu, 0x08u},
 584:.\Generated_Source\PSoC4/cyfitter_cfg.c **** 			{0x01u, 0x0Eu},
 585:.\Generated_Source\PSoC4/cyfitter_cfg.c **** 			{0x10u, 0x0Eu},
 586:.\Generated_Source\PSoC4/cyfitter_cfg.c **** 		};
 587:.\Generated_Source\PSoC4/cyfitter_cfg.c **** 
 588:.\Generated_Source\PSoC4/cyfitter_cfg.c **** 
 589:.\Generated_Source\PSoC4/cyfitter_cfg.c **** 
 590:.\Generated_Source\PSoC4/cyfitter_cfg.c **** 		CYPACKED typedef struct {
 591:.\Generated_Source\PSoC4/cyfitter_cfg.c **** 			void CYFAR *address;
 592:.\Generated_Source\PSoC4/cyfitter_cfg.c **** 			uint16 size;
 593:.\Generated_Source\PSoC4/cyfitter_cfg.c **** 		} CYPACKED_ATTR cfg_memset_t;
 594:.\Generated_Source\PSoC4/cyfitter_cfg.c **** 
 595:.\Generated_Source\PSoC4/cyfitter_cfg.c **** 
 596:.\Generated_Source\PSoC4/cyfitter_cfg.c **** 		CYPACKED typedef struct {
 597:.\Generated_Source\PSoC4/cyfitter_cfg.c **** 			void CYFAR *dest;
 598:.\Generated_Source\PSoC4/cyfitter_cfg.c **** 			const void CYCODE *src;
 599:.\Generated_Source\PSoC4/cyfitter_cfg.c **** 			uint16 size;
 600:.\Generated_Source\PSoC4/cyfitter_cfg.c **** 		} CYPACKED_ATTR cfg_memcpy_t;
 601:.\Generated_Source\PSoC4/cyfitter_cfg.c **** 
 602:.\Generated_Source\PSoC4/cyfitter_cfg.c **** 		static const cfg_memset_t CYCODE cfg_memset_list [] = {
 603:.\Generated_Source\PSoC4/cyfitter_cfg.c **** 			/* address, size */
ARM GAS  C:\Users\Calin\AppData\Local\Temp\cc3CPSE4.s 			page 19


 604:.\Generated_Source\PSoC4/cyfitter_cfg.c **** 			{(void CYFAR *)(CYDEV_UDB_P0_U0_BASE), 512u},
 605:.\Generated_Source\PSoC4/cyfitter_cfg.c **** 			{(void CYFAR *)(CYDEV_UDB_P1_U1_BASE), 384u},
 606:.\Generated_Source\PSoC4/cyfitter_cfg.c **** 			{(void CYFAR *)(CYDEV_UDB_DSI0_BASE), 1024u},
 607:.\Generated_Source\PSoC4/cyfitter_cfg.c **** 		};
 608:.\Generated_Source\PSoC4/cyfitter_cfg.c **** 
 609:.\Generated_Source\PSoC4/cyfitter_cfg.c **** 		/* UDB_0_0_1_CONFIG Address: CYDEV_UDB_P1_U0_BASE Size (bytes): 128 */
 610:.\Generated_Source\PSoC4/cyfitter_cfg.c **** 		static const uint8 CYCODE BS_UDB_0_0_1_CONFIG_VAL[] = {
 611:.\Generated_Source\PSoC4/cyfitter_cfg.c **** 			0x00u, 0xCDu, 0x10u, 0x00u, 0x0Eu, 0xCDu, 0x00u, 0x00u, 0x10u, 0x00u, 0x00u, 0x00u, 0x10u, 0x00u
 612:.\Generated_Source\PSoC4/cyfitter_cfg.c **** 			0x25u, 0x01u, 0x0Au, 0x32u, 0x00u, 0x8Du, 0x00u, 0x40u, 0x24u, 0x10u, 0x09u, 0x60u, 0x23u, 0x02u
 613:.\Generated_Source\PSoC4/cyfitter_cfg.c **** 			0x10u, 0xCDu, 0x00u, 0x00u, 0x10u, 0x4Du, 0x00u, 0x80u, 0x00u, 0x72u, 0x00u, 0x08u, 0x00u, 0x12u
 614:.\Generated_Source\PSoC4/cyfitter_cfg.c **** 			0x10u, 0x00u, 0x10u, 0x80u, 0x0Fu, 0x70u, 0x20u, 0x0Fu, 0x20u, 0x00u, 0x00u, 0xA0u, 0x00u, 0x00u
 615:.\Generated_Source\PSoC4/cyfitter_cfg.c **** 			0x46u, 0x01u, 0x30u, 0x00u, 0x05u, 0x0Eu, 0xFDu, 0xCBu, 0x3Du, 0xFFu, 0xFFu, 0xFFu, 0x22u, 0x00u
 616:.\Generated_Source\PSoC4/cyfitter_cfg.c **** 			0x04u, 0x00u, 0x00u, 0x00u, 0x00u, 0x00u, 0x02u, 0x2Cu, 0x04u, 0x04u, 0x04u, 0x04u, 0x11u, 0x11u
 617:.\Generated_Source\PSoC4/cyfitter_cfg.c **** 			0x00u, 0x00u, 0xC0u, 0x00u, 0x40u, 0x01u, 0x10u, 0x11u, 0xC0u, 0x01u, 0x00u, 0x11u, 0x40u, 0x01u
 618:.\Generated_Source\PSoC4/cyfitter_cfg.c **** 			0x00u, 0x00u, 0x00u, 0x00u, 0x00u, 0x00u, 0x00u, 0x00u, 0x00u, 0x00u, 0x00u, 0x00u, 0x00u, 0x00u
 619:.\Generated_Source\PSoC4/cyfitter_cfg.c **** 
 620:.\Generated_Source\PSoC4/cyfitter_cfg.c **** 		static const cfg_memcpy_t CYCODE cfg_memcpy_list [] = {
 621:.\Generated_Source\PSoC4/cyfitter_cfg.c **** 			/* dest, src, size */
 622:.\Generated_Source\PSoC4/cyfitter_cfg.c **** 			{(void CYFAR *)(CYDEV_UDB_P1_U0_BASE), BS_UDB_0_0_1_CONFIG_VAL, 128u},
 623:.\Generated_Source\PSoC4/cyfitter_cfg.c **** 		};
 624:.\Generated_Source\PSoC4/cyfitter_cfg.c **** 
 625:.\Generated_Source\PSoC4/cyfitter_cfg.c **** 		uint8 CYDATA i;
 626:.\Generated_Source\PSoC4/cyfitter_cfg.c **** 
 627:.\Generated_Source\PSoC4/cyfitter_cfg.c **** 		/* Zero out critical memory blocks before beginning configuration */
 628:.\Generated_Source\PSoC4/cyfitter_cfg.c **** 		for (i = 0u; i < (sizeof(cfg_memset_list)/sizeof(cfg_memset_list[0])); i++)
 389              		.loc 1 628 0
 390 010e 0024     		mov	r4, #0
 391 0110 10E0     		b	.L20
 392              	.LVL26:
 393              	.L21:
 394              	.LBB4:
 629:.\Generated_Source\PSoC4/cyfitter_cfg.c **** 		{
 630:.\Generated_Source\PSoC4/cyfitter_cfg.c **** 			const cfg_memset_t CYCODE * CYDATA ms = &cfg_memset_list[i];
 631:.\Generated_Source\PSoC4/cyfitter_cfg.c **** 			CYMEMZERO(ms->address, (size_t)(uint32)(ms->size));
 395              		.loc 1 631 0 discriminator 3
 396 0112 4548     		ldr	r0, .L24+4
 397 0114 6300     		lsl	r3, r4, #1
 398 0116 1A19     		add	r2, r3, r4
 399 0118 5200     		lsl	r2, r2, #1
 400 011a 8218     		add	r2, r0, r2
 401 011c 9188     		ldrh	r1, [r2, #4]
 402 011e 1B19     		add	r3, r3, r4
 403 0120 5B00     		lsl	r3, r3, #1
 404 0122 1A5A     		ldrh	r2, [r3, r0]
 405 0124 C318     		add	r3, r0, r3
 406 0126 5888     		ldrh	r0, [r3, #2]
 407 0128 0004     		lsl	r0, r0, #16
 408 012a 1043     		orr	r0, r2
 409 012c FFF7FEFF 		bl	CYMEMZERO
 410              	.LVL27:
 411              	.LBE4:
 628:.\Generated_Source\PSoC4/cyfitter_cfg.c **** 		{
 412              		.loc 1 628 0 discriminator 3
 413 0130 0134     		add	r4, r4, #1
 414              	.LVL28:
 415 0132 E4B2     		uxtb	r4, r4
 416              	.LVL29:
ARM GAS  C:\Users\Calin\AppData\Local\Temp\cc3CPSE4.s 			page 20


 417              	.L20:
 628:.\Generated_Source\PSoC4/cyfitter_cfg.c **** 		{
 418              		.loc 1 628 0 is_stmt 0 discriminator 1
 419 0134 022C     		cmp	r4, #2
 420 0136 ECD9     		bls	.L21
 421 0138 0024     		mov	r4, #0
 422              	.LVL30:
 423 013a 12E0     		b	.L22
 424              	.LVL31:
 425              	.L23:
 426              	.LBB5:
 632:.\Generated_Source\PSoC4/cyfitter_cfg.c **** 		}
 633:.\Generated_Source\PSoC4/cyfitter_cfg.c **** 
 634:.\Generated_Source\PSoC4/cyfitter_cfg.c **** 		/* Copy device configuration data into registers */
 635:.\Generated_Source\PSoC4/cyfitter_cfg.c **** 		for (i = 0u; i < (sizeof(cfg_memcpy_list)/sizeof(cfg_memcpy_list[0])); i++)
 636:.\Generated_Source\PSoC4/cyfitter_cfg.c **** 		{
 637:.\Generated_Source\PSoC4/cyfitter_cfg.c **** 			const cfg_memcpy_t CYCODE * CYDATA mc = &cfg_memcpy_list[i];
 638:.\Generated_Source\PSoC4/cyfitter_cfg.c **** 			void * CYDATA destPtr = mc->dest;
 427              		.loc 1 638 0 is_stmt 1 discriminator 3
 428 013c 3A4D     		ldr	r5, .L24+4
 429 013e A300     		lsl	r3, r4, #2
 430 0140 1A19     		add	r2, r3, r4
 431 0142 5200     		lsl	r2, r2, #1
 432 0144 AA18     		add	r2, r5, r2
 433 0146 918A     		ldrh	r1, [r2, #20]
 434 0148 D08A     		ldrh	r0, [r2, #22]
 435 014a 0004     		lsl	r0, r0, #16
 436 014c 0843     		orr	r0, r1
 437              	.LVL32:
 639:.\Generated_Source\PSoC4/cyfitter_cfg.c **** 			const void CYCODE * CYDATA srcPtr = mc->src;
 438              		.loc 1 639 0 discriminator 3
 439 014e 131C     		mov	r3, r2
 440 0150 128B     		ldrh	r2, [r2, #24]
 441 0152 598B     		ldrh	r1, [r3, #26]
 442 0154 0904     		lsl	r1, r1, #16
 443 0156 1143     		orr	r1, r2
 444              	.LVL33:
 640:.\Generated_Source\PSoC4/cyfitter_cfg.c **** 			uint16 CYDATA numBytes = mc->size;
 641:.\Generated_Source\PSoC4/cyfitter_cfg.c **** 			CYCONFIGCPYCODE(destPtr, srcPtr, numBytes);
 445              		.loc 1 641 0 discriminator 3
 446 0158 8022     		mov	r2, #128
 447 015a FFF7FEFF 		bl	CYCONFIGCPYCODE
 448              	.LVL34:
 449              	.LBE5:
 635:.\Generated_Source\PSoC4/cyfitter_cfg.c **** 		{
 450              		.loc 1 635 0 discriminator 3
 451 015e 0134     		add	r4, r4, #1
 452              	.LVL35:
 453 0160 E4B2     		uxtb	r4, r4
 454              	.LVL36:
 455              	.L22:
 635:.\Generated_Source\PSoC4/cyfitter_cfg.c **** 		{
 456              		.loc 1 635 0 is_stmt 0 discriminator 1
 457 0162 002C     		cmp	r4, #0
 458 0164 EAD0     		beq	.L23
 642:.\Generated_Source\PSoC4/cyfitter_cfg.c **** 		}
 643:.\Generated_Source\PSoC4/cyfitter_cfg.c **** 
ARM GAS  C:\Users\Calin\AppData\Local\Temp\cc3CPSE4.s 			page 21


 644:.\Generated_Source\PSoC4/cyfitter_cfg.c **** 		cfg_write_bytes32(cy_cfg_addr_table, cy_cfg_data_table);
 459              		.loc 1 644 0 is_stmt 1
 460 0166 3049     		ldr	r1, .L24+4
 461 0168 081C     		mov	r0, r1
 462 016a 2030     		add	r0, r0, #32
 463 016c 4831     		add	r1, r1, #72
 464 016e FFF7FEFF 		bl	cfg_write_bytes32
 465              	.LVL37:
 645:.\Generated_Source\PSoC4/cyfitter_cfg.c **** 
 646:.\Generated_Source\PSoC4/cyfitter_cfg.c **** 		/* HSIOM Starting address: CYDEV_HSIOM_BASE */
 647:.\Generated_Source\PSoC4/cyfitter_cfg.c **** 		CY_SET_XTND_REG32((void CYFAR *)(CYDEV_HSIOM_BASE), 0x00033303u);
 466              		.loc 1 647 0
 467 0172 2E4A     		ldr	r2, .L24+8
 468 0174 2E4B     		ldr	r3, .L24+12
 469 0176 1A60     		str	r2, [r3]
 648:.\Generated_Source\PSoC4/cyfitter_cfg.c **** 		CY_SET_XTND_REG32((void CYFAR *)(CYREG_HSIOM_PORT_SEL2), 0x03000000u);
 470              		.loc 1 648 0
 471 0178 C022     		mov	r2, #192
 472 017a 9204     		lsl	r2, r2, #18
 473 017c 2D4B     		ldr	r3, .L24+16
 474 017e 1A60     		str	r2, [r3]
 649:.\Generated_Source\PSoC4/cyfitter_cfg.c **** 		CY_SET_XTND_REG32((void CYFAR *)(CYREG_HSIOM_PORT_SEL3), 0x0000EE03u);
 475              		.loc 1 649 0
 476 0180 2D4A     		ldr	r2, .L24+20
 477 0182 2E4B     		ldr	r3, .L24+24
 478 0184 1A60     		str	r2, [r3]
 650:.\Generated_Source\PSoC4/cyfitter_cfg.c **** 
 651:.\Generated_Source\PSoC4/cyfitter_cfg.c **** 		/* UDB_PA_0 Starting address: CYDEV_UDB_PA0_BASE */
 652:.\Generated_Source\PSoC4/cyfitter_cfg.c **** 		CY_SET_XTND_REG32((void CYFAR *)(CYDEV_UDB_PA0_BASE), 0x00990000u);
 479              		.loc 1 652 0
 480 0186 9923     		mov	r3, #153
 481 0188 1B04     		lsl	r3, r3, #16
 482 018a 2D4A     		ldr	r2, .L24+28
 483 018c 1360     		str	r3, [r2]
 653:.\Generated_Source\PSoC4/cyfitter_cfg.c **** 		CY_SET_XTND_REG32((void CYFAR *)(CYREG_UDB_PA0_CFG8), 0x01E40000u);
 484              		.loc 1 653 0
 485 018e F221     		mov	r1, #242
 486 0190 4904     		lsl	r1, r1, #17
 487 0192 2C4A     		ldr	r2, .L24+32
 488 0194 1160     		str	r1, [r2]
 654:.\Generated_Source\PSoC4/cyfitter_cfg.c **** 
 655:.\Generated_Source\PSoC4/cyfitter_cfg.c **** 		/* UDB_PA_1 Starting address: CYDEV_UDB_PA1_BASE */
 656:.\Generated_Source\PSoC4/cyfitter_cfg.c **** 		CY_SET_XTND_REG32((void CYFAR *)(CYDEV_UDB_PA1_BASE), 0x00990000u);
 489              		.loc 1 656 0
 490 0196 2C4A     		ldr	r2, .L24+36
 491 0198 1360     		str	r3, [r2]
 657:.\Generated_Source\PSoC4/cyfitter_cfg.c **** 
 658:.\Generated_Source\PSoC4/cyfitter_cfg.c **** 		/* UDB_PA_2 Starting address: CYDEV_UDB_PA2_BASE */
 659:.\Generated_Source\PSoC4/cyfitter_cfg.c **** 		CY_SET_XTND_REG32((void CYFAR *)(CYDEV_UDB_PA2_BASE), 0x00990000u);
 492              		.loc 1 659 0
 493 019a 2C4A     		ldr	r2, .L24+40
 494 019c 1360     		str	r3, [r2]
 660:.\Generated_Source\PSoC4/cyfitter_cfg.c **** 		CY_SET_XTND_REG32((void CYFAR *)(CYREG_UDB_PA2_CFG8), 0x45000000u);
 495              		.loc 1 660 0
 496 019e 8A21     		mov	r1, #138
 497 01a0 C905     		lsl	r1, r1, #23
 498 01a2 2B4A     		ldr	r2, .L24+44
ARM GAS  C:\Users\Calin\AppData\Local\Temp\cc3CPSE4.s 			page 22


 499 01a4 1160     		str	r1, [r2]
 661:.\Generated_Source\PSoC4/cyfitter_cfg.c **** 
 662:.\Generated_Source\PSoC4/cyfitter_cfg.c **** 		/* UDB_PA_3 Starting address: CYDEV_UDB_PA3_BASE */
 663:.\Generated_Source\PSoC4/cyfitter_cfg.c **** 		CY_SET_XTND_REG32((void CYFAR *)(CYDEV_UDB_PA3_BASE), 0x00990000u);
 500              		.loc 1 663 0
 501 01a6 2B4A     		ldr	r2, .L24+48
 502 01a8 1360     		str	r3, [r2]
 664:.\Generated_Source\PSoC4/cyfitter_cfg.c **** 		CY_SET_XTND_REG32((void CYFAR *)(CYREG_UDB_PA3_CFG8), 0x00010000u);
 503              		.loc 1 664 0
 504 01aa 8022     		mov	r2, #128
 505 01ac 5202     		lsl	r2, r2, #9
 506 01ae 2A4B     		ldr	r3, .L24+52
 507 01b0 1A60     		str	r2, [r3]
 665:.\Generated_Source\PSoC4/cyfitter_cfg.c **** 
 666:.\Generated_Source\PSoC4/cyfitter_cfg.c **** 		/* TCPWM_CNT0 Starting address: CYDEV_TCPWM_CNT0_TR_CTRL0 */
 667:.\Generated_Source\PSoC4/cyfitter_cfg.c **** 		CY_SET_XTND_REG32((void CYFAR *)(CYREG_TCPWM_CNT0_TR_CTRL0), 0x000F00E0u);
 508              		.loc 1 667 0
 509 01b2 2A4A     		ldr	r2, .L24+56
 510 01b4 2A4B     		ldr	r3, .L24+60
 511 01b6 1A60     		str	r2, [r3]
 668:.\Generated_Source\PSoC4/cyfitter_cfg.c **** 
 669:.\Generated_Source\PSoC4/cyfitter_cfg.c **** 		/* INT_SELECT Starting address: CYDEV_CPUSS_INTR_SELECT */
 670:.\Generated_Source\PSoC4/cyfitter_cfg.c **** 		CY_SET_XTND_REG32((void CYFAR *)(CYREG_CPUSS_INTR_SELECT), 0x0000000Du);
 512              		.loc 1 670 0
 513 01b8 0D22     		mov	r2, #13
 514 01ba 2A4B     		ldr	r3, .L24+64
 515 01bc 1A60     		str	r2, [r3]
 671:.\Generated_Source\PSoC4/cyfitter_cfg.c **** 
 672:.\Generated_Source\PSoC4/cyfitter_cfg.c **** 		/* INT_CONFIG Starting address: CYDEV_UDB_INT_CFG */
 673:.\Generated_Source\PSoC4/cyfitter_cfg.c **** 		CY_SET_XTND_REG32((void CYFAR *)(CYREG_UDB_INT_CFG), 0x0000000Cu);
 516              		.loc 1 673 0
 517 01be 0C20     		mov	r0, #12
 518 01c0 294B     		ldr	r3, .L24+68
 519 01c2 1860     		str	r0, [r3]
 674:.\Generated_Source\PSoC4/cyfitter_cfg.c **** 
 675:.\Generated_Source\PSoC4/cyfitter_cfg.c **** 		/* Enable digital routing */
 676:.\Generated_Source\PSoC4/cyfitter_cfg.c **** 		CY_SET_XTND_REG8((void *)CYREG_UDB_UDBIF_BANK_CTL, CY_GET_XTND_REG8((void *)CYREG_UDB_UDBIF_BANK_
 520              		.loc 1 676 0
 521 01c4 294B     		ldr	r3, .L24+72
 522 01c6 1978     		ldrb	r1, [r3]
 523 01c8 0B3A     		sub	r2, r2, #11
 524 01ca 0A43     		orr	r2, r1
 525 01cc 1A70     		strb	r2, [r3]
 677:.\Generated_Source\PSoC4/cyfitter_cfg.c **** 
 678:.\Generated_Source\PSoC4/cyfitter_cfg.c **** 		/* Enable UDB array */
 679:.\Generated_Source\PSoC4/cyfitter_cfg.c **** 		CY_SET_XTND_REG8((void *)CYREG_UDB_UDBIF_WAIT_CFG, (uint8)((CY_GET_XTND_REG8((void *)CYREG_UDB_UD
 526              		.loc 1 679 0
 527 01ce 284C     		ldr	r4, .L24+76
 528              	.LVL38:
 529 01d0 2278     		ldrb	r2, [r4]
 530 01d2 3C21     		mov	r1, #60
 531 01d4 8A43     		bic	r2, r1
 532 01d6 2839     		sub	r1, r1, #40
 533 01d8 0A43     		orr	r2, r1
 534 01da 2270     		strb	r2, [r4]
 680:.\Generated_Source\PSoC4/cyfitter_cfg.c **** 		CY_SET_XTND_REG8((void *)CYREG_UDB_UDBIF_BANK_CTL, (uint8)(CY_GET_XTND_REG8((void *)CYREG_UDB_UDB
 535              		.loc 1 680 0
ARM GAS  C:\Users\Calin\AppData\Local\Temp\cc3CPSE4.s 			page 23


 536 01dc 1978     		ldrb	r1, [r3]
 537 01de 1622     		mov	r2, #22
 538 01e0 0A43     		orr	r2, r1
 539 01e2 1A70     		strb	r2, [r3]
 540              	.LBE3:
 681:.\Generated_Source\PSoC4/cyfitter_cfg.c **** 	}
 682:.\Generated_Source\PSoC4/cyfitter_cfg.c **** 
 683:.\Generated_Source\PSoC4/cyfitter_cfg.c **** 	/* Perform second pass device configuration. These items must be configured in specific order afte
 684:.\Generated_Source\PSoC4/cyfitter_cfg.c **** 	/* IOPINS0_0 Starting address: CYDEV_PRT0_BASE */
 685:.\Generated_Source\PSoC4/cyfitter_cfg.c **** 	CY_SET_XTND_REG32((void CYFAR *)(CYDEV_PRT0_BASE), 0x0000003Du);
 541              		.loc 1 685 0
 542 01e4 3D22     		mov	r2, #61
 543 01e6 234B     		ldr	r3, .L24+80
 544 01e8 1A60     		str	r2, [r3]
 686:.\Generated_Source\PSoC4/cyfitter_cfg.c **** 	CY_SET_XTND_REG32((void CYFAR *)(CYREG_PRT0_PC), 0x00036DB5u);
 545              		.loc 1 686 0
 546 01ea 234A     		ldr	r2, .L24+84
 547 01ec 234B     		ldr	r3, .L24+88
 548 01ee 1A60     		str	r2, [r3]
 687:.\Generated_Source\PSoC4/cyfitter_cfg.c **** 
 688:.\Generated_Source\PSoC4/cyfitter_cfg.c **** 	/* IOPINS0_1 Starting address: CYDEV_PRT1_BASE */
 689:.\Generated_Source\PSoC4/cyfitter_cfg.c **** 	CY_SET_XTND_REG32((void CYFAR *)(CYDEV_PRT1_BASE), 0x0000000Cu);
 549              		.loc 1 689 0
 550 01f0 234B     		ldr	r3, .L24+92
 551 01f2 1860     		str	r0, [r3]
 690:.\Generated_Source\PSoC4/cyfitter_cfg.c **** 	CY_SET_XTND_REG32((void CYFAR *)(CYREG_PRT1_PC), 0x00000480u);
 552              		.loc 1 690 0
 553 01f4 9022     		mov	r2, #144
 554 01f6 D200     		lsl	r2, r2, #3
 555 01f8 224B     		ldr	r3, .L24+96
 556 01fa 1A60     		str	r2, [r3]
 691:.\Generated_Source\PSoC4/cyfitter_cfg.c **** 
 692:.\Generated_Source\PSoC4/cyfitter_cfg.c **** 	/* IOPINS0_2 Starting address: CYDEV_PRT2_BASE */
 693:.\Generated_Source\PSoC4/cyfitter_cfg.c **** 	CY_SET_XTND_REG32((void CYFAR *)(CYDEV_PRT2_BASE), 0x0000004Bu);
 557              		.loc 1 693 0
 558 01fc 4B22     		mov	r2, #75
 559 01fe 224B     		ldr	r3, .L24+100
 560 0200 1A60     		str	r2, [r3]
 694:.\Generated_Source\PSoC4/cyfitter_cfg.c **** 	CY_SET_XTND_REG32((void CYFAR *)(CYREG_PRT2_PC), 0x00180400u);
 561              		.loc 1 694 0
 562 0202 224A     		ldr	r2, .L24+104
 563 0204 224B     		ldr	r3, .L24+108
 564 0206 1A60     		str	r2, [r3]
 695:.\Generated_Source\PSoC4/cyfitter_cfg.c **** 	CY_SET_XTND_REG32((void CYFAR *)(CYREG_PRT2_PC2), 0x00000003u);
 565              		.loc 1 695 0
 566 0208 0322     		mov	r2, #3
 567 020a 224B     		ldr	r3, .L24+112
 568 020c 1A60     		str	r2, [r3]
 696:.\Generated_Source\PSoC4/cyfitter_cfg.c **** 
 697:.\Generated_Source\PSoC4/cyfitter_cfg.c **** 	/* IOPINS0_3 Starting address: CYDEV_PRT3_BASE */
 698:.\Generated_Source\PSoC4/cyfitter_cfg.c **** 	CY_SET_XTND_REG32((void CYFAR *)(CYDEV_PRT3_BASE), 0x00000001u);
 569              		.loc 1 698 0
 570 020e 023A     		sub	r2, r2, #2
 571 0210 214B     		ldr	r3, .L24+116
 572 0212 1A60     		str	r2, [r3]
 699:.\Generated_Source\PSoC4/cyfitter_cfg.c **** 	CY_SET_XTND_REG32((void CYFAR *)(CYREG_PRT3_PC), 0x00000D8Eu);
 573              		.loc 1 699 0
ARM GAS  C:\Users\Calin\AppData\Local\Temp\cc3CPSE4.s 			page 24


 574 0214 214A     		ldr	r2, .L24+120
 575 0216 224B     		ldr	r3, .L24+124
 576 0218 1A60     		str	r2, [r3]
 700:.\Generated_Source\PSoC4/cyfitter_cfg.c **** 
 701:.\Generated_Source\PSoC4/cyfitter_cfg.c **** 
 702:.\Generated_Source\PSoC4/cyfitter_cfg.c **** 	/* Setup clocks based on selections from Clock DWR */
 703:.\Generated_Source\PSoC4/cyfitter_cfg.c **** 	ClockSetup();
 577              		.loc 1 703 0
 578 021a FFF7F1FE 		bl	ClockSetup
 579              	.LVL39:
 704:.\Generated_Source\PSoC4/cyfitter_cfg.c **** 
 705:.\Generated_Source\PSoC4/cyfitter_cfg.c **** 	/* Perform basic analog initialization to defaults */
 706:.\Generated_Source\PSoC4/cyfitter_cfg.c **** 	AnalogSetDefault();
 580              		.loc 1 706 0
 581 021e FFF7FEFF 		bl	AnalogSetDefault
 582              	.LVL40:
 707:.\Generated_Source\PSoC4/cyfitter_cfg.c **** 
 708:.\Generated_Source\PSoC4/cyfitter_cfg.c **** }
 583              		.loc 1 708 0
 584              		@ sp needed
 585 0222 38BD     		pop	{r3, r4, r5, pc}
 586              	.L25:
 587              		.align	2
 588              	.L24:
 589 0224 1C700F40 		.word	1074753564
 590 0228 00000000 		.word	.LANCHOR0
 591 022c 03330300 		.word	209667
 592 0230 00000140 		.word	1073807360
 593 0234 08000140 		.word	1073807368
 594 0238 03EE0000 		.word	60931
 595 023c 0C000140 		.word	1073807372
 596 0240 00500F40 		.word	1074745344
 597 0244 08500F40 		.word	1074745352
 598 0248 10500F40 		.word	1074745360
 599 024c 20500F40 		.word	1074745376
 600 0250 28500F40 		.word	1074745384
 601 0254 30500F40 		.word	1074745392
 602 0258 38500F40 		.word	1074745400
 603 025c E0000F00 		.word	983264
 604 0260 20010540 		.word	1074069792
 605 0264 20000040 		.word	1073741856
 606 0268 00800F40 		.word	1074757632
 607 026c 00700F40 		.word	1074753536
 608 0270 01700F40 		.word	1074753537
 609 0274 00000440 		.word	1074003968
 610 0278 B56D0300 		.word	224693
 611 027c 08000440 		.word	1074003976
 612 0280 00010440 		.word	1074004224
 613 0284 08010440 		.word	1074004232
 614 0288 00020440 		.word	1074004480
 615 028c 00041800 		.word	1573888
 616 0290 08020440 		.word	1074004488
 617 0294 18020440 		.word	1074004504
 618 0298 00030440 		.word	1074004736
 619 029c 8E0D0000 		.word	3470
 620 02a0 08030440 		.word	1074004744
 621              		.cfi_endproc
ARM GAS  C:\Users\Calin\AppData\Local\Temp\cc3CPSE4.s 			page 25


 622              	.LFE7:
 623              		.size	cyfitter_cfg, .-cyfitter_cfg
 624              		.section	.rodata
 625              		.align	2
 626              		.set	.LANCHOR0,. + 0
 627              		.type	cfg_memset_list.4750, %object
 628              		.size	cfg_memset_list.4750, 18
 629              	cfg_memset_list.4750:
 630 0000 00300F40 		.word	1074737152
 631 0004 0002     		.short	512
 632 0006 80320F40 		.4byte	1074737792
 633 000a 8001     		.short	384
 634 000c 00400F40 		.word	1074741248
 635 0010 0004     		.short	1024
 636 0012 0000     		.space	2
 637              		.type	cfg_memcpy_list.4752, %object
 638              		.size	cfg_memcpy_list.4752, 10
 639              	cfg_memcpy_list.4752:
 640 0014 00320F40 		.word	1074737664
 641 0018 30020000 		.word	BS_UDB_0_0_1_CONFIG_VAL.4751
 642 001c 8000     		.short	128
 643 001e 0000     		.space	2
 644              		.type	cy_cfg_addr_table.4739, %object
 645              		.size	cy_cfg_addr_table.4739, 40
 646              	cy_cfg_addr_table.4739:
 647 0020 02000F40 		.word	1074724866
 648 0024 47300F40 		.word	1074737223
 649 0028 29310F40 		.word	1074737449
 650 002c 04320F40 		.word	1074737668
 651 0030 48330F40 		.word	1074737992
 652 0034 0E400F40 		.word	1074741262
 653 0038 0F410F40 		.word	1074741519
 654 003c 06420F40 		.word	1074741766
 655 0040 10430F40 		.word	1074742032
 656 0044 02600F40 		.word	1074749442
 657              		.type	cy_cfg_data_table.4740, %object
 658              		.size	cy_cfg_data_table.4740, 486
 659              	cy_cfg_data_table.4740:
 660 0048 80       		.byte	-128
 661 0049 7F       		.byte	127
 662 004a 82       		.byte	-126
 663 004b 0F       		.byte	15
 664 004c 06       		.byte	6
 665 004d 02       		.byte	2
 666 004e 0C       		.byte	12
 667 004f 08       		.byte	8
 668 0050 0E       		.byte	14
 669 0051 34       		.byte	52
 670 0052 10       		.byte	16
 671 0053 14       		.byte	20
 672 0054 12       		.byte	18
 673 0055 2B       		.byte	43
 674 0056 15       		.byte	21
 675 0057 01       		.byte	1
 676 0058 17       		.byte	23
 677 0059 02       		.byte	2
 678 005a 18       		.byte	24
ARM GAS  C:\Users\Calin\AppData\Local\Temp\cc3CPSE4.s 			page 26


 679 005b 24       		.byte	36
 680 005c 1A       		.byte	26
 681 005d 1B       		.byte	27
 682 005e 1B       		.byte	27
 683 005f 01       		.byte	1
 684 0060 1C       		.byte	28
 685 0061 0D       		.byte	13
 686 0062 1E       		.byte	30
 687 0063 30       		.byte	48
 688 0064 2F       		.byte	47
 689 0065 04       		.byte	4
 690 0066 30       		.byte	48
 691 0067 3C       		.byte	60
 692 0068 33       		.byte	51
 693 0069 04       		.byte	4
 694 006a 34       		.byte	52
 695 006b 03       		.byte	3
 696 006c 35       		.byte	53
 697 006d 02       		.byte	2
 698 006e 37       		.byte	55
 699 006f 01       		.byte	1
 700 0070 3A       		.byte	58
 701 0071 02       		.byte	2
 702 0072 56       		.byte	86
 703 0073 02       		.byte	2
 704 0074 58       		.byte	88
 705 0075 04       		.byte	4
 706 0076 59       		.byte	89
 707 0077 04       		.byte	4
 708 0078 5B       		.byte	91
 709 0079 04       		.byte	4
 710 007a 5C       		.byte	92
 711 007b 21       		.byte	33
 712 007c 5D       		.byte	93
 713 007d 30       		.byte	48
 714 007e 5F       		.byte	95
 715 007f 01       		.byte	1
 716 0080 80       		.byte	-128
 717 0081 18       		.byte	24
 718 0082 81       		.byte	-127
 719 0083 04       		.byte	4
 720 0084 82       		.byte	-126
 721 0085 02       		.byte	2
 722 0086 84       		.byte	-124
 723 0087 18       		.byte	24
 724 0088 85       		.byte	-123
 725 0089 04       		.byte	4
 726 008a 88       		.byte	-120
 727 008b 9C       		.byte	-100
 728 008c 89       		.byte	-119
 729 008d 01       		.byte	1
 730 008e 8A       		.byte	-118
 731 008f 03       		.byte	3
 732 0090 8C       		.byte	-116
 733 0091 1A       		.byte	26
 734 0092 90       		.byte	-112
 735 0093 C1       		.byte	-63
ARM GAS  C:\Users\Calin\AppData\Local\Temp\cc3CPSE4.s 			page 27


 736 0094 91       		.byte	-111
 737 0095 07       		.byte	7
 738 0096 92       		.byte	-110
 739 0097 38       		.byte	56
 740 0098 93       		.byte	-109
 741 0099 38       		.byte	56
 742 009a 97       		.byte	-105
 743 009b 04       		.byte	4
 744 009c 98       		.byte	-104
 745 009d 18       		.byte	24
 746 009e 99       		.byte	-103
 747 009f 56       		.byte	86
 748 00a0 9A       		.byte	-102
 749 00a1 02       		.byte	2
 750 00a2 9B       		.byte	-101
 751 00a3 09       		.byte	9
 752 00a4 9C       		.byte	-100
 753 00a5 33       		.byte	51
 754 00a6 9D       		.byte	-99
 755 00a7 04       		.byte	4
 756 00a8 9E       		.byte	-98
 757 00a9 44       		.byte	68
 758 00aa A0       		.byte	-96
 759 00ab 1A       		.byte	26
 760 00ac A1       		.byte	-95
 761 00ad 04       		.byte	4
 762 00ae A4       		.byte	-92
 763 00af 02       		.byte	2
 764 00b0 A5       		.byte	-91
 765 00b1 04       		.byte	4
 766 00b2 A6       		.byte	-90
 767 00b3 18       		.byte	24
 768 00b4 A9       		.byte	-87
 769 00b5 60       		.byte	96
 770 00b6 AC       		.byte	-84
 771 00b7 82       		.byte	-126
 772 00b8 AD       		.byte	-83
 773 00b9 0A       		.byte	10
 774 00ba AF       		.byte	-81
 775 00bb 10       		.byte	16
 776 00bc B0       		.byte	-80
 777 00bd 0F       		.byte	15
 778 00be B1       		.byte	-79
 779 00bf 08       		.byte	8
 780 00c0 B4       		.byte	-76
 781 00c1 E0       		.byte	-32
 782 00c2 B5       		.byte	-75
 783 00c3 7F       		.byte	127
 784 00c4 B6       		.byte	-74
 785 00c5 13       		.byte	19
 786 00c6 B9       		.byte	-71
 787 00c7 20       		.byte	32
 788 00c8 BA       		.byte	-70
 789 00c9 22       		.byte	34
 790 00ca BF       		.byte	-65
 791 00cb 01       		.byte	1
 792 00cc D4       		.byte	-44
ARM GAS  C:\Users\Calin\AppData\Local\Temp\cc3CPSE4.s 			page 28


 793 00cd 40       		.byte	64
 794 00ce D8       		.byte	-40
 795 00cf 04       		.byte	4
 796 00d0 D9       		.byte	-39
 797 00d1 04       		.byte	4
 798 00d2 DB       		.byte	-37
 799 00d3 04       		.byte	4
 800 00d4 DC       		.byte	-36
 801 00d5 11       		.byte	17
 802 00d6 DD       		.byte	-35
 803 00d7 10       		.byte	16
 804 00d8 DF       		.byte	-33
 805 00d9 01       		.byte	1
 806 00da 00       		.byte	0
 807 00db 44       		.byte	68
 808 00dc 04       		.byte	4
 809 00dd 0A       		.byte	10
 810 00de 05       		.byte	5
 811 00df 18       		.byte	24
 812 00e0 06       		.byte	6
 813 00e1 02       		.byte	2
 814 00e2 09       		.byte	9
 815 00e3 A2       		.byte	-94
 816 00e4 0D       		.byte	13
 817 00e5 02       		.byte	2
 818 00e6 0E       		.byte	14
 819 00e7 06       		.byte	6
 820 00e8 15       		.byte	21
 821 00e9 01       		.byte	1
 822 00ea 16       		.byte	22
 823 00eb 01       		.byte	1
 824 00ec 17       		.byte	23
 825 00ed 04       		.byte	4
 826 00ee 18       		.byte	24
 827 00ef 44       		.byte	68
 828 00f0 19       		.byte	25
 829 00f1 02       		.byte	2
 830 00f2 1D       		.byte	29
 831 00f3 B2       		.byte	-78
 832 00f4 1E       		.byte	30
 833 00f5 0A       		.byte	10
 834 00f6 1F       		.byte	31
 835 00f7 02       		.byte	2
 836 00f8 22       		.byte	34
 837 00f9 18       		.byte	24
 838 00fa 23       		.byte	35
 839 00fb 01       		.byte	1
 840 00fc 25       		.byte	37
 841 00fd 10       		.byte	16
 842 00fe 27       		.byte	39
 843 00ff 40       		.byte	64
 844 0100 28       		.byte	40
 845 0101 02       		.byte	2
 846 0102 2D       		.byte	45
 847 0103 08       		.byte	8
 848 0104 2E       		.byte	46
 849 0105 02       		.byte	2
ARM GAS  C:\Users\Calin\AppData\Local\Temp\cc3CPSE4.s 			page 29


 850 0106 2F       		.byte	47
 851 0107 0A       		.byte	10
 852 0108 32       		.byte	50
 853 0109 18       		.byte	24
 854 010a 35       		.byte	53
 855 010b 30       		.byte	48
 856 010c 36       		.byte	54
 857 010d 41       		.byte	65
 858 010e 37       		.byte	55
 859 010f 04       		.byte	4
 860 0110 3D       		.byte	61
 861 0111 21       		.byte	33
 862 0112 3E       		.byte	62
 863 0113 04       		.byte	4
 864 0114 65       		.byte	101
 865 0115 04       		.byte	4
 866 0116 66       		.byte	102
 867 0117 60       		.byte	96
 868 0118 73       		.byte	115
 869 0119 40       		.byte	64
 870 011a 8D       		.byte	-115
 871 011b 10       		.byte	16
 872 011c C0       		.byte	-64
 873 011d F5       		.byte	-11
 874 011e C2       		.byte	-62
 875 011f DB       		.byte	-37
 876 0120 C4       		.byte	-60
 877 0121 B0       		.byte	-80
 878 0122 CA       		.byte	-54
 879 0123 F8       		.byte	-8
 880 0124 CC       		.byte	-52
 881 0125 F6       		.byte	-10
 882 0126 CE       		.byte	-50
 883 0127 E0       		.byte	-32
 884 0128 D8       		.byte	-40
 885 0129 70       		.byte	112
 886 012a E6       		.byte	-26
 887 012b 10       		.byte	16
 888 012c D4       		.byte	-44
 889 012d 09       		.byte	9
 890 012e DB       		.byte	-37
 891 012f 04       		.byte	4
 892 0130 DD       		.byte	-35
 893 0131 10       		.byte	16
 894 0132 DF       		.byte	-33
 895 0133 01       		.byte	1
 896 0134 04       		.byte	4
 897 0135 06       		.byte	6
 898 0136 06       		.byte	6
 899 0137 02       		.byte	2
 900 0138 07       		.byte	7
 901 0139 04       		.byte	4
 902 013a 0D       		.byte	13
 903 013b 82       		.byte	-126
 904 013c 0E       		.byte	14
 905 013d 08       		.byte	8
 906 013e 15       		.byte	21
ARM GAS  C:\Users\Calin\AppData\Local\Temp\cc3CPSE4.s 			page 30


 907 013f 05       		.byte	5
 908 0140 1C       		.byte	28
 909 0141 14       		.byte	20
 910 0142 1D       		.byte	29
 911 0143 41       		.byte	65
 912 0144 24       		.byte	36
 913 0145 08       		.byte	8
 914 0146 25       		.byte	37
 915 0147 08       		.byte	8
 916 0148 26       		.byte	38
 917 0149 A0       		.byte	-96
 918 014a 2D       		.byte	45
 919 014b 21       		.byte	33
 920 014c 2F       		.byte	47
 921 014d 12       		.byte	18
 922 014e 31       		.byte	49
 923 014f 0C       		.byte	12
 924 0150 36       		.byte	54
 925 0151 A1       		.byte	-95
 926 0152 37       		.byte	55
 927 0153 04       		.byte	4
 928 0154 38       		.byte	56
 929 0155 10       		.byte	16
 930 0156 3A       		.byte	58
 931 0157 10       		.byte	16
 932 0158 3E       		.byte	62
 933 0159 06       		.byte	6
 934 015a 3F       		.byte	63
 935 015b 80       		.byte	-128
 936 015c 45       		.byte	69
 937 015d 82       		.byte	-126
 938 015e 46       		.byte	70
 939 015f 10       		.byte	16
 940 0160 4D       		.byte	77
 941 0161 28       		.byte	40
 942 0162 4E       		.byte	78
 943 0163 02       		.byte	2
 944 0164 54       		.byte	84
 945 0165 01       		.byte	1
 946 0166 56       		.byte	86
 947 0167 61       		.byte	97
 948 0168 57       		.byte	87
 949 0169 48       		.byte	72
 950 016a 58       		.byte	88
 951 016b 20       		.byte	32
 952 016c 59       		.byte	89
 953 016d 09       		.byte	9
 954 016e 5B       		.byte	91
 955 016f 40       		.byte	64
 956 0170 61       		.byte	97
 957 0171 40       		.byte	64
 958 0172 65       		.byte	101
 959 0173 02       		.byte	2
 960 0174 6C       		.byte	108
 961 0175 01       		.byte	1
 962 0176 6D       		.byte	109
 963 0177 05       		.byte	5
ARM GAS  C:\Users\Calin\AppData\Local\Temp\cc3CPSE4.s 			page 31


 964 0178 6E       		.byte	110
 965 0179 84       		.byte	-124
 966 017a 6F       		.byte	111
 967 017b 04       		.byte	4
 968 017c 76       		.byte	118
 969 017d 02       		.byte	2
 970 017e 84       		.byte	-124
 971 017f 21       		.byte	33
 972 0180 86       		.byte	-122
 973 0181 40       		.byte	64
 974 0182 87       		.byte	-121
 975 0183 10       		.byte	16
 976 0184 8A       		.byte	-118
 977 0185 02       		.byte	2
 978 0186 8C       		.byte	-116
 979 0187 04       		.byte	4
 980 0188 94       		.byte	-108
 981 0189 0A       		.byte	10
 982 018a 95       		.byte	-107
 983 018b 01       		.byte	1
 984 018c 96       		.byte	-106
 985 018d 04       		.byte	4
 986 018e 99       		.byte	-103
 987 018f 22       		.byte	34
 988 0190 9B       		.byte	-101
 989 0191 40       		.byte	64
 990 0192 9D       		.byte	-99
 991 0193 04       		.byte	4
 992 0194 9E       		.byte	-98
 993 0195 63       		.byte	99
 994 0196 9F       		.byte	-97
 995 0197 04       		.byte	4
 996 0198 A1       		.byte	-95
 997 0199 82       		.byte	-126
 998 019a A2       		.byte	-94
 999 019b 05       		.byte	5
 1000 019c A3       		.byte	-93
 1001 019d 02       		.byte	2
 1002 019e A6       		.byte	-90
 1003 019f 40       		.byte	64
 1004 01a0 A7       		.byte	-89
 1005 01a1 08       		.byte	8
 1006 01a2 AB       		.byte	-85
 1007 01a3 01       		.byte	1
 1008 01a4 B3       		.byte	-77
 1009 01a5 40       		.byte	64
 1010 01a6 B4       		.byte	-76
 1011 01a7 06       		.byte	6
 1012 01a8 C0       		.byte	-64
 1013 01a9 F0       		.byte	-16
 1014 01aa C2       		.byte	-62
 1015 01ab D0       		.byte	-48
 1016 01ac C4       		.byte	-60
 1017 01ad 30       		.byte	48
 1018 01ae CA       		.byte	-54
 1019 01af F0       		.byte	-16
 1020 01b0 CC       		.byte	-52
ARM GAS  C:\Users\Calin\AppData\Local\Temp\cc3CPSE4.s 			page 32


 1021 01b1 F0       		.byte	-16
 1022 01b2 CE       		.byte	-50
 1023 01b3 D0       		.byte	-48
 1024 01b4 D0       		.byte	-48
 1025 01b5 D0       		.byte	-48
 1026 01b6 D2       		.byte	-46
 1027 01b7 30       		.byte	48
 1028 01b8 D6       		.byte	-42
 1029 01b9 0F       		.byte	15
 1030 01ba D8       		.byte	-40
 1031 01bb 88       		.byte	-120
 1032 01bc E2       		.byte	-30
 1033 01bd 01       		.byte	1
 1034 01be E6       		.byte	-26
 1035 01bf 40       		.byte	64
 1036 01c0 EA       		.byte	-22
 1037 01c1 20       		.byte	32
 1038 01c2 EE       		.byte	-18
 1039 01c3 40       		.byte	64
 1040 01c4 2C       		.byte	44
 1041 01c5 20       		.byte	32
 1042 01c6 50       		.byte	80
 1043 01c7 10       		.byte	16
 1044 01c8 54       		.byte	84
 1045 01c9 02       		.byte	2
 1046 01ca 5B       		.byte	91
 1047 01cb 80       		.byte	-128
 1048 01cc 5C       		.byte	92
 1049 01cd 01       		.byte	1
 1050 01ce 69       		.byte	105
 1051 01cf 02       		.byte	2
 1052 01d0 6C       		.byte	108
 1053 01d1 20       		.byte	32
 1054 01d2 77       		.byte	119
 1055 01d3 04       		.byte	4
 1056 01d4 8C       		.byte	-116
 1057 01d5 01       		.byte	1
 1058 01d6 CA       		.byte	-54
 1059 01d7 80       		.byte	-128
 1060 01d8 D4       		.byte	-44
 1061 01d9 A0       		.byte	-96
 1062 01da D6       		.byte	-42
 1063 01db A0       		.byte	-96
 1064 01dc DA       		.byte	-38
 1065 01dd 80       		.byte	-128
 1066 01de DC       		.byte	-36
 1067 01df 60       		.byte	96
 1068 01e0 01       		.byte	1
 1069 01e1 40       		.byte	64
 1070 01e2 05       		.byte	5
 1071 01e3 40       		.byte	64
 1072 01e4 49       		.byte	73
 1073 01e5 40       		.byte	64
 1074 01e6 4D       		.byte	77
 1075 01e7 40       		.byte	64
 1076 01e8 83       		.byte	-125
 1077 01e9 80       		.byte	-128
ARM GAS  C:\Users\Calin\AppData\Local\Temp\cc3CPSE4.s 			page 33


 1078 01ea 8C       		.byte	-116
 1079 01eb 10       		.byte	16
 1080 01ec 94       		.byte	-108
 1081 01ed 20       		.byte	32
 1082 01ee 9F       		.byte	-97
 1083 01ef 80       		.byte	-128
 1084 01f0 AB       		.byte	-85
 1085 01f1 04       		.byte	4
 1086 01f2 B1       		.byte	-79
 1087 01f3 01       		.byte	1
 1088 01f4 B4       		.byte	-76
 1089 01f5 02       		.byte	2
 1090 01f6 C0       		.byte	-64
 1091 01f7 C0       		.byte	-64
 1092 01f8 D2       		.byte	-46
 1093 01f9 30       		.byte	48
 1094 01fa E2       		.byte	-30
 1095 01fb 80       		.byte	-128
 1096 01fc EA       		.byte	-22
 1097 01fd 80       		.byte	-128
 1098 01fe 05       		.byte	5
 1099 01ff 20       		.byte	32
 1100 0200 60       		.byte	96
 1101 0201 01       		.byte	1
 1102 0202 6B       		.byte	107
 1103 0203 02       		.byte	2
 1104 0204 C0       		.byte	-64
 1105 0205 01       		.byte	1
 1106 0206 D6       		.byte	-42
 1107 0207 02       		.byte	2
 1108 0208 DA       		.byte	-38
 1109 0209 02       		.byte	2
 1110 020a 07       		.byte	7
 1111 020b 20       		.byte	32
 1112 020c 18       		.byte	24
 1113 020d 01       		.byte	1
 1114 020e 1C       		.byte	28
 1115 020f 08       		.byte	8
 1116 0210 1E       		.byte	30
 1117 0211 10       		.byte	16
 1118 0212 54       		.byte	84
 1119 0213 04       		.byte	4
 1120 0214 82       		.byte	-126
 1121 0215 10       		.byte	16
 1122 0216 8B       		.byte	-117
 1123 0217 20       		.byte	32
 1124 0218 94       		.byte	-108
 1125 0219 01       		.byte	1
 1126 021a B3       		.byte	-77
 1127 021b 02       		.byte	2
 1128 021c B5       		.byte	-75
 1129 021d 20       		.byte	32
 1130 021e C0       		.byte	-64
 1131 021f 04       		.byte	4
 1132 0220 C6       		.byte	-58
 1133 0221 07       		.byte	7
 1134 0222 D4       		.byte	-44
ARM GAS  C:\Users\Calin\AppData\Local\Temp\cc3CPSE4.s 			page 34


 1135 0223 02       		.byte	2
 1136 0224 E6       		.byte	-26
 1137 0225 04       		.byte	4
 1138 0226 E8       		.byte	-24
 1139 0227 04       		.byte	4
 1140 0228 EA       		.byte	-22
 1141 0229 08       		.byte	8
 1142 022a 01       		.byte	1
 1143 022b 0E       		.byte	14
 1144 022c 10       		.byte	16
 1145 022d 0E       		.byte	14
 1146 022e 0000     		.space	2
 1147              		.type	BS_UDB_0_0_1_CONFIG_VAL.4751, %object
 1148              		.size	BS_UDB_0_0_1_CONFIG_VAL.4751, 128
 1149              	BS_UDB_0_0_1_CONFIG_VAL.4751:
 1150 0230 00       		.byte	0
 1151 0231 CD       		.byte	-51
 1152 0232 10       		.byte	16
 1153 0233 00       		.byte	0
 1154 0234 0E       		.byte	14
 1155 0235 CD       		.byte	-51
 1156 0236 00       		.byte	0
 1157 0237 00       		.byte	0
 1158 0238 10       		.byte	16
 1159 0239 00       		.byte	0
 1160 023a 00       		.byte	0
 1161 023b 00       		.byte	0
 1162 023c 10       		.byte	16
 1163 023d 00       		.byte	0
 1164 023e 00       		.byte	0
 1165 023f 80       		.byte	-128
 1166 0240 25       		.byte	37
 1167 0241 01       		.byte	1
 1168 0242 0A       		.byte	10
 1169 0243 32       		.byte	50
 1170 0244 00       		.byte	0
 1171 0245 8D       		.byte	-115
 1172 0246 00       		.byte	0
 1173 0247 40       		.byte	64
 1174 0248 24       		.byte	36
 1175 0249 10       		.byte	16
 1176 024a 09       		.byte	9
 1177 024b 60       		.byte	96
 1178 024c 23       		.byte	35
 1179 024d 02       		.byte	2
 1180 024e 04       		.byte	4
 1181 024f 0D       		.byte	13
 1182 0250 10       		.byte	16
 1183 0251 CD       		.byte	-51
 1184 0252 00       		.byte	0
 1185 0253 00       		.byte	0
 1186 0254 10       		.byte	16
 1187 0255 4D       		.byte	77
 1188 0256 00       		.byte	0
 1189 0257 80       		.byte	-128
 1190 0258 00       		.byte	0
 1191 0259 72       		.byte	114
ARM GAS  C:\Users\Calin\AppData\Local\Temp\cc3CPSE4.s 			page 35


 1192 025a 00       		.byte	0
 1193 025b 08       		.byte	8
 1194 025c 00       		.byte	0
 1195 025d 12       		.byte	18
 1196 025e 00       		.byte	0
 1197 025f 64       		.byte	100
 1198 0260 10       		.byte	16
 1199 0261 00       		.byte	0
 1200 0262 10       		.byte	16
 1201 0263 80       		.byte	-128
 1202 0264 0F       		.byte	15
 1203 0265 70       		.byte	112
 1204 0266 20       		.byte	32
 1205 0267 0F       		.byte	15
 1206 0268 20       		.byte	32
 1207 0269 00       		.byte	0
 1208 026a 00       		.byte	0
 1209 026b A0       		.byte	-96
 1210 026c 00       		.byte	0
 1211 026d 00       		.byte	0
 1212 026e 45       		.byte	69
 1213 026f 04       		.byte	4
 1214 0270 46       		.byte	70
 1215 0271 01       		.byte	1
 1216 0272 30       		.byte	48
 1217 0273 00       		.byte	0
 1218 0274 05       		.byte	5
 1219 0275 0E       		.byte	14
 1220 0276 FD       		.byte	-3
 1221 0277 CB       		.byte	-53
 1222 0278 3D       		.byte	61
 1223 0279 FF       		.byte	-1
 1224 027a FF       		.byte	-1
 1225 027b FF       		.byte	-1
 1226 027c 22       		.byte	34
 1227 027d 00       		.byte	0
 1228 027e F0       		.byte	-16
 1229 027f 08       		.byte	8
 1230 0280 04       		.byte	4
 1231 0281 00       		.byte	0
 1232 0282 00       		.byte	0
 1233 0283 00       		.byte	0
 1234 0284 00       		.byte	0
 1235 0285 00       		.byte	0
 1236 0286 02       		.byte	2
 1237 0287 2C       		.byte	44
 1238 0288 04       		.byte	4
 1239 0289 04       		.byte	4
 1240 028a 04       		.byte	4
 1241 028b 04       		.byte	4
 1242 028c 11       		.byte	17
 1243 028d 11       		.byte	17
 1244 028e 00       		.byte	0
 1245 028f 01       		.byte	1
 1246 0290 00       		.byte	0
 1247 0291 00       		.byte	0
 1248 0292 C0       		.byte	-64
ARM GAS  C:\Users\Calin\AppData\Local\Temp\cc3CPSE4.s 			page 36


 1249 0293 00       		.byte	0
 1250 0294 40       		.byte	64
 1251 0295 01       		.byte	1
 1252 0296 10       		.byte	16
 1253 0297 11       		.byte	17
 1254 0298 C0       		.byte	-64
 1255 0299 01       		.byte	1
 1256 029a 00       		.byte	0
 1257 029b 11       		.byte	17
 1258 029c 40       		.byte	64
 1259 029d 01       		.byte	1
 1260 029e 40       		.byte	64
 1261 029f 01       		.byte	1
 1262 02a0 00       		.byte	0
 1263 02a1 00       		.byte	0
 1264 02a2 00       		.byte	0
 1265 02a3 00       		.byte	0
 1266 02a4 00       		.byte	0
 1267 02a5 00       		.byte	0
 1268 02a6 00       		.byte	0
 1269 02a7 00       		.byte	0
 1270 02a8 00       		.byte	0
 1271 02a9 00       		.byte	0
 1272 02aa 00       		.byte	0
 1273 02ab 00       		.byte	0
 1274 02ac 00       		.byte	0
 1275 02ad 00       		.byte	0
 1276 02ae 00       		.byte	0
 1277 02af 00       		.byte	0
 1278              		.text
 1279              	.Letext0:
 1280              		.file 2 "c:\\program files (x86)\\cypress\\psoc creator\\3.3\\psoc creator\\import\\gnu\\arm\\4.9.
 1281              		.file 3 ".\\Generated_Source\\PSoC4\\cytypes.h"
 1282              		.file 4 ".\\Generated_Source\\PSoC4\\CyLib.h"