ARM GAS  C:\Users\Calin\AppData\Local\Temp\cc0EsBgx.s 			page 1


   1              		.cpu cortex-m0
   2              		.fpu softvfp
   3              		.eabi_attribute 20, 1
   4              		.eabi_attribute 21, 1
   5              		.eabi_attribute 23, 3
   6              		.eabi_attribute 24, 1
   7              		.eabi_attribute 25, 1
   8              		.eabi_attribute 26, 1
   9              		.eabi_attribute 30, 1
  10              		.eabi_attribute 34, 0
  11              		.eabi_attribute 18, 4
  12              		.code	16
  13              		.file	"SPIM_1.c"
  14              		.text
  15              	.Ltext0:
  16              		.cfi_sections	.debug_frame
  17              		.section	.text.SPIM_1_Enable,"ax",%progbits
  18              		.align	2
  19              		.global	SPIM_1_Enable
  20              		.code	16
  21              		.thumb_func
  22              		.type	SPIM_1_Enable, %function
  23              	SPIM_1_Enable:
  24              	.LFB1:
  25              		.file 1 ".\\Generated_Source\\PSoC4\\SPIM_1.c"
   1:.\Generated_Source\PSoC4/SPIM_1.c **** /*******************************************************************************
   2:.\Generated_Source\PSoC4/SPIM_1.c **** * File Name: SPIM_1.c
   3:.\Generated_Source\PSoC4/SPIM_1.c **** * Version 2.50
   4:.\Generated_Source\PSoC4/SPIM_1.c **** *
   5:.\Generated_Source\PSoC4/SPIM_1.c **** * Description:
   6:.\Generated_Source\PSoC4/SPIM_1.c **** *  This file provides all API functionality of the SPI Master component.
   7:.\Generated_Source\PSoC4/SPIM_1.c **** *
   8:.\Generated_Source\PSoC4/SPIM_1.c **** * Note:
   9:.\Generated_Source\PSoC4/SPIM_1.c **** *  None.
  10:.\Generated_Source\PSoC4/SPIM_1.c **** *
  11:.\Generated_Source\PSoC4/SPIM_1.c **** ********************************************************************************
  12:.\Generated_Source\PSoC4/SPIM_1.c **** * Copyright 2008-2015, Cypress Semiconductor Corporation.  All rights reserved.
  13:.\Generated_Source\PSoC4/SPIM_1.c **** * You may use this file only in accordance with the license, terms, conditions,
  14:.\Generated_Source\PSoC4/SPIM_1.c **** * disclaimers, and limitations in the end user license agreement accompanying
  15:.\Generated_Source\PSoC4/SPIM_1.c **** * the software package with which this file was provided.
  16:.\Generated_Source\PSoC4/SPIM_1.c **** *******************************************************************************/
  17:.\Generated_Source\PSoC4/SPIM_1.c **** 
  18:.\Generated_Source\PSoC4/SPIM_1.c **** #include "SPIM_1_PVT.h"
  19:.\Generated_Source\PSoC4/SPIM_1.c **** 
  20:.\Generated_Source\PSoC4/SPIM_1.c **** #if(SPIM_1_TX_SOFTWARE_BUF_ENABLED)
  21:.\Generated_Source\PSoC4/SPIM_1.c ****     volatile uint8 SPIM_1_txBuffer[SPIM_1_TX_BUFFER_SIZE];
  22:.\Generated_Source\PSoC4/SPIM_1.c ****     volatile uint8 SPIM_1_txBufferFull;
  23:.\Generated_Source\PSoC4/SPIM_1.c ****     volatile uint8 SPIM_1_txBufferRead;
  24:.\Generated_Source\PSoC4/SPIM_1.c ****     volatile uint8 SPIM_1_txBufferWrite;
  25:.\Generated_Source\PSoC4/SPIM_1.c **** #endif /* (SPIM_1_TX_SOFTWARE_BUF_ENABLED) */
  26:.\Generated_Source\PSoC4/SPIM_1.c **** 
  27:.\Generated_Source\PSoC4/SPIM_1.c **** #if(SPIM_1_RX_SOFTWARE_BUF_ENABLED)
  28:.\Generated_Source\PSoC4/SPIM_1.c ****     volatile uint8 SPIM_1_rxBuffer[SPIM_1_RX_BUFFER_SIZE];
  29:.\Generated_Source\PSoC4/SPIM_1.c ****     volatile uint8 SPIM_1_rxBufferFull;
  30:.\Generated_Source\PSoC4/SPIM_1.c ****     volatile uint8 SPIM_1_rxBufferRead;
  31:.\Generated_Source\PSoC4/SPIM_1.c ****     volatile uint8 SPIM_1_rxBufferWrite;
  32:.\Generated_Source\PSoC4/SPIM_1.c **** #endif /* (SPIM_1_RX_SOFTWARE_BUF_ENABLED) */
ARM GAS  C:\Users\Calin\AppData\Local\Temp\cc0EsBgx.s 			page 2


  33:.\Generated_Source\PSoC4/SPIM_1.c **** 
  34:.\Generated_Source\PSoC4/SPIM_1.c **** uint8 SPIM_1_initVar = 0u;
  35:.\Generated_Source\PSoC4/SPIM_1.c **** 
  36:.\Generated_Source\PSoC4/SPIM_1.c **** volatile uint8 SPIM_1_swStatusTx;
  37:.\Generated_Source\PSoC4/SPIM_1.c **** volatile uint8 SPIM_1_swStatusRx;
  38:.\Generated_Source\PSoC4/SPIM_1.c **** 
  39:.\Generated_Source\PSoC4/SPIM_1.c **** 
  40:.\Generated_Source\PSoC4/SPIM_1.c **** /*******************************************************************************
  41:.\Generated_Source\PSoC4/SPIM_1.c **** * Function Name: SPIM_1_Init
  42:.\Generated_Source\PSoC4/SPIM_1.c **** ********************************************************************************
  43:.\Generated_Source\PSoC4/SPIM_1.c **** *
  44:.\Generated_Source\PSoC4/SPIM_1.c **** * Summary:
  45:.\Generated_Source\PSoC4/SPIM_1.c **** *  Inits/Restores default SPIM configuration provided with customizer.
  46:.\Generated_Source\PSoC4/SPIM_1.c **** *
  47:.\Generated_Source\PSoC4/SPIM_1.c **** * Parameters:
  48:.\Generated_Source\PSoC4/SPIM_1.c **** *  None.
  49:.\Generated_Source\PSoC4/SPIM_1.c **** *
  50:.\Generated_Source\PSoC4/SPIM_1.c **** * Return:
  51:.\Generated_Source\PSoC4/SPIM_1.c **** *  None.
  52:.\Generated_Source\PSoC4/SPIM_1.c **** *
  53:.\Generated_Source\PSoC4/SPIM_1.c **** * Side Effects:
  54:.\Generated_Source\PSoC4/SPIM_1.c **** *  When this function is called it initializes all of the necessary parameters
  55:.\Generated_Source\PSoC4/SPIM_1.c **** *  for execution. i.e. setting the initial interrupt mask, configuring the
  56:.\Generated_Source\PSoC4/SPIM_1.c **** *  interrupt service routine, configuring the bit-counter parameters and
  57:.\Generated_Source\PSoC4/SPIM_1.c **** *  clearing the FIFO and Status Register.
  58:.\Generated_Source\PSoC4/SPIM_1.c **** *
  59:.\Generated_Source\PSoC4/SPIM_1.c **** * Reentrant:
  60:.\Generated_Source\PSoC4/SPIM_1.c **** *  No.
  61:.\Generated_Source\PSoC4/SPIM_1.c **** *
  62:.\Generated_Source\PSoC4/SPIM_1.c **** *******************************************************************************/
  63:.\Generated_Source\PSoC4/SPIM_1.c **** void SPIM_1_Init(void) 
  64:.\Generated_Source\PSoC4/SPIM_1.c **** {
  65:.\Generated_Source\PSoC4/SPIM_1.c ****     /* Initialize the Bit counter */
  66:.\Generated_Source\PSoC4/SPIM_1.c ****     SPIM_1_COUNTER_PERIOD_REG = SPIM_1_BITCTR_INIT;
  67:.\Generated_Source\PSoC4/SPIM_1.c **** 
  68:.\Generated_Source\PSoC4/SPIM_1.c ****     /* Init TX ISR  */
  69:.\Generated_Source\PSoC4/SPIM_1.c ****     #if(0u != SPIM_1_INTERNAL_TX_INT_ENABLED)
  70:.\Generated_Source\PSoC4/SPIM_1.c ****         CyIntDisable         (SPIM_1_TX_ISR_NUMBER);
  71:.\Generated_Source\PSoC4/SPIM_1.c ****         CyIntSetPriority     (SPIM_1_TX_ISR_NUMBER,  SPIM_1_TX_ISR_PRIORITY);
  72:.\Generated_Source\PSoC4/SPIM_1.c ****         (void) CyIntSetVector(SPIM_1_TX_ISR_NUMBER, &SPIM_1_TX_ISR);
  73:.\Generated_Source\PSoC4/SPIM_1.c ****     #endif /* (0u != SPIM_1_INTERNAL_TX_INT_ENABLED) */
  74:.\Generated_Source\PSoC4/SPIM_1.c **** 
  75:.\Generated_Source\PSoC4/SPIM_1.c ****     /* Init RX ISR  */
  76:.\Generated_Source\PSoC4/SPIM_1.c ****     #if(0u != SPIM_1_INTERNAL_RX_INT_ENABLED)
  77:.\Generated_Source\PSoC4/SPIM_1.c ****         CyIntDisable         (SPIM_1_RX_ISR_NUMBER);
  78:.\Generated_Source\PSoC4/SPIM_1.c ****         CyIntSetPriority     (SPIM_1_RX_ISR_NUMBER,  SPIM_1_RX_ISR_PRIORITY);
  79:.\Generated_Source\PSoC4/SPIM_1.c ****         (void) CyIntSetVector(SPIM_1_RX_ISR_NUMBER, &SPIM_1_RX_ISR);
  80:.\Generated_Source\PSoC4/SPIM_1.c ****     #endif /* (0u != SPIM_1_INTERNAL_RX_INT_ENABLED) */
  81:.\Generated_Source\PSoC4/SPIM_1.c **** 
  82:.\Generated_Source\PSoC4/SPIM_1.c ****     /* Clear any stray data from the RX and TX FIFO */
  83:.\Generated_Source\PSoC4/SPIM_1.c ****     SPIM_1_ClearFIFO();
  84:.\Generated_Source\PSoC4/SPIM_1.c **** 
  85:.\Generated_Source\PSoC4/SPIM_1.c ****     #if(SPIM_1_RX_SOFTWARE_BUF_ENABLED)
  86:.\Generated_Source\PSoC4/SPIM_1.c ****         SPIM_1_rxBufferFull  = 0u;
  87:.\Generated_Source\PSoC4/SPIM_1.c ****         SPIM_1_rxBufferRead  = 0u;
  88:.\Generated_Source\PSoC4/SPIM_1.c ****         SPIM_1_rxBufferWrite = 0u;
  89:.\Generated_Source\PSoC4/SPIM_1.c ****     #endif /* (SPIM_1_RX_SOFTWARE_BUF_ENABLED) */
ARM GAS  C:\Users\Calin\AppData\Local\Temp\cc0EsBgx.s 			page 3


  90:.\Generated_Source\PSoC4/SPIM_1.c **** 
  91:.\Generated_Source\PSoC4/SPIM_1.c ****     #if(SPIM_1_TX_SOFTWARE_BUF_ENABLED)
  92:.\Generated_Source\PSoC4/SPIM_1.c ****         SPIM_1_txBufferFull  = 0u;
  93:.\Generated_Source\PSoC4/SPIM_1.c ****         SPIM_1_txBufferRead  = 0u;
  94:.\Generated_Source\PSoC4/SPIM_1.c ****         SPIM_1_txBufferWrite = 0u;
  95:.\Generated_Source\PSoC4/SPIM_1.c ****     #endif /* (SPIM_1_TX_SOFTWARE_BUF_ENABLED) */
  96:.\Generated_Source\PSoC4/SPIM_1.c **** 
  97:.\Generated_Source\PSoC4/SPIM_1.c ****     (void) SPIM_1_ReadTxStatus(); /* Clear Tx status and swStatusTx */
  98:.\Generated_Source\PSoC4/SPIM_1.c ****     (void) SPIM_1_ReadRxStatus(); /* Clear Rx status and swStatusRx */
  99:.\Generated_Source\PSoC4/SPIM_1.c **** 
 100:.\Generated_Source\PSoC4/SPIM_1.c ****     /* Configure TX and RX interrupt mask */
 101:.\Generated_Source\PSoC4/SPIM_1.c ****     SPIM_1_TX_STATUS_MASK_REG = SPIM_1_TX_INIT_INTERRUPTS_MASK;
 102:.\Generated_Source\PSoC4/SPIM_1.c ****     SPIM_1_RX_STATUS_MASK_REG = SPIM_1_RX_INIT_INTERRUPTS_MASK;
 103:.\Generated_Source\PSoC4/SPIM_1.c **** }
 104:.\Generated_Source\PSoC4/SPIM_1.c **** 
 105:.\Generated_Source\PSoC4/SPIM_1.c **** 
 106:.\Generated_Source\PSoC4/SPIM_1.c **** /*******************************************************************************
 107:.\Generated_Source\PSoC4/SPIM_1.c **** * Function Name: SPIM_1_Enable
 108:.\Generated_Source\PSoC4/SPIM_1.c **** ********************************************************************************
 109:.\Generated_Source\PSoC4/SPIM_1.c **** *
 110:.\Generated_Source\PSoC4/SPIM_1.c **** * Summary:
 111:.\Generated_Source\PSoC4/SPIM_1.c **** *  Enable SPIM component.
 112:.\Generated_Source\PSoC4/SPIM_1.c **** *
 113:.\Generated_Source\PSoC4/SPIM_1.c **** * Parameters:
 114:.\Generated_Source\PSoC4/SPIM_1.c **** *  None.
 115:.\Generated_Source\PSoC4/SPIM_1.c **** *
 116:.\Generated_Source\PSoC4/SPIM_1.c **** * Return:
 117:.\Generated_Source\PSoC4/SPIM_1.c **** *  None.
 118:.\Generated_Source\PSoC4/SPIM_1.c **** *
 119:.\Generated_Source\PSoC4/SPIM_1.c **** *******************************************************************************/
 120:.\Generated_Source\PSoC4/SPIM_1.c **** void SPIM_1_Enable(void) 
 121:.\Generated_Source\PSoC4/SPIM_1.c **** {
  26              		.loc 1 121 0
  27              		.cfi_startproc
  28 0000 08B5     		push	{r3, lr}
  29              		.cfi_def_cfa_offset 8
  30              		.cfi_offset 3, -8
  31              		.cfi_offset 14, -4
 122:.\Generated_Source\PSoC4/SPIM_1.c ****     uint8 enableInterrupts;
 123:.\Generated_Source\PSoC4/SPIM_1.c **** 
 124:.\Generated_Source\PSoC4/SPIM_1.c ****     enableInterrupts = CyEnterCriticalSection();
  32              		.loc 1 124 0
  33 0002 FFF7FEFF 		bl	CyEnterCriticalSection
  34              	.LVL0:
 125:.\Generated_Source\PSoC4/SPIM_1.c ****     SPIM_1_COUNTER_CONTROL_REG |= SPIM_1_CNTR_ENABLE;
  35              		.loc 1 125 0
  36 0006 0A4A     		ldr	r2, .L2
  37 0008 1178     		ldrb	r1, [r2]
  38 000a 2023     		mov	r3, #32
  39 000c 0B43     		orr	r3, r1
  40 000e 1370     		strb	r3, [r2]
 126:.\Generated_Source\PSoC4/SPIM_1.c ****     SPIM_1_TX_STATUS_ACTL_REG  |= SPIM_1_INT_ENABLE;
  41              		.loc 1 126 0
  42 0010 0849     		ldr	r1, .L2+4
  43 0012 0A78     		ldrb	r2, [r1]
  44 0014 1023     		mov	r3, #16
  45 0016 1A43     		orr	r2, r3
ARM GAS  C:\Users\Calin\AppData\Local\Temp\cc0EsBgx.s 			page 4


  46 0018 D2B2     		uxtb	r2, r2
  47 001a 0A70     		strb	r2, [r1]
 127:.\Generated_Source\PSoC4/SPIM_1.c ****     SPIM_1_RX_STATUS_ACTL_REG  |= SPIM_1_INT_ENABLE;
  48              		.loc 1 127 0
  49 001c 064A     		ldr	r2, .L2+8
  50 001e 1178     		ldrb	r1, [r2]
  51 0020 0B43     		orr	r3, r1
  52 0022 DBB2     		uxtb	r3, r3
  53 0024 1370     		strb	r3, [r2]
 128:.\Generated_Source\PSoC4/SPIM_1.c ****     CyExitCriticalSection(enableInterrupts);
  54              		.loc 1 128 0
  55 0026 FFF7FEFF 		bl	CyExitCriticalSection
  56              	.LVL1:
 129:.\Generated_Source\PSoC4/SPIM_1.c **** 
 130:.\Generated_Source\PSoC4/SPIM_1.c ****     #if(0u != SPIM_1_INTERNAL_CLOCK)
 131:.\Generated_Source\PSoC4/SPIM_1.c ****         SPIM_1_IntClock_Enable();
  57              		.loc 1 131 0
  58 002a FFF7FEFF 		bl	SPIM_1_IntClock_Start
  59              	.LVL2:
 132:.\Generated_Source\PSoC4/SPIM_1.c ****     #endif /* (0u != SPIM_1_INTERNAL_CLOCK) */
 133:.\Generated_Source\PSoC4/SPIM_1.c **** 
 134:.\Generated_Source\PSoC4/SPIM_1.c ****     SPIM_1_EnableTxInt();
 135:.\Generated_Source\PSoC4/SPIM_1.c ****     SPIM_1_EnableRxInt();
 136:.\Generated_Source\PSoC4/SPIM_1.c **** }
  60              		.loc 1 136 0
  61              		@ sp needed
  62 002e 08BD     		pop	{r3, pc}
  63              	.L3:
  64              		.align	2
  65              	.L2:
  66 0030 92000F40 		.word	1074725010
  67 0034 93000F40 		.word	1074725011
  68 0038 91000F40 		.word	1074725009
  69              		.cfi_endproc
  70              	.LFE1:
  71              		.size	SPIM_1_Enable, .-SPIM_1_Enable
  72              		.section	.text.SPIM_1_Stop,"ax",%progbits
  73              		.align	2
  74              		.global	SPIM_1_Stop
  75              		.code	16
  76              		.thumb_func
  77              		.type	SPIM_1_Stop, %function
  78              	SPIM_1_Stop:
  79              	.LFB3:
 137:.\Generated_Source\PSoC4/SPIM_1.c **** 
 138:.\Generated_Source\PSoC4/SPIM_1.c **** 
 139:.\Generated_Source\PSoC4/SPIM_1.c **** /*******************************************************************************
 140:.\Generated_Source\PSoC4/SPIM_1.c **** * Function Name: SPIM_1_Start
 141:.\Generated_Source\PSoC4/SPIM_1.c **** ********************************************************************************
 142:.\Generated_Source\PSoC4/SPIM_1.c **** *
 143:.\Generated_Source\PSoC4/SPIM_1.c **** * Summary:
 144:.\Generated_Source\PSoC4/SPIM_1.c **** *  Initialize and Enable the SPI Master component.
 145:.\Generated_Source\PSoC4/SPIM_1.c **** *
 146:.\Generated_Source\PSoC4/SPIM_1.c **** * Parameters:
 147:.\Generated_Source\PSoC4/SPIM_1.c **** *  None.
 148:.\Generated_Source\PSoC4/SPIM_1.c **** *
 149:.\Generated_Source\PSoC4/SPIM_1.c **** * Return:
ARM GAS  C:\Users\Calin\AppData\Local\Temp\cc0EsBgx.s 			page 5


 150:.\Generated_Source\PSoC4/SPIM_1.c **** *  None.
 151:.\Generated_Source\PSoC4/SPIM_1.c **** *
 152:.\Generated_Source\PSoC4/SPIM_1.c **** * Global variables:
 153:.\Generated_Source\PSoC4/SPIM_1.c **** *  SPIM_1_initVar - used to check initial configuration, modified on
 154:.\Generated_Source\PSoC4/SPIM_1.c **** *  first function call.
 155:.\Generated_Source\PSoC4/SPIM_1.c **** *
 156:.\Generated_Source\PSoC4/SPIM_1.c **** * Theory:
 157:.\Generated_Source\PSoC4/SPIM_1.c **** *  Enable the clock input to enable operation.
 158:.\Generated_Source\PSoC4/SPIM_1.c **** *
 159:.\Generated_Source\PSoC4/SPIM_1.c **** * Reentrant:
 160:.\Generated_Source\PSoC4/SPIM_1.c **** *  No.
 161:.\Generated_Source\PSoC4/SPIM_1.c **** *
 162:.\Generated_Source\PSoC4/SPIM_1.c **** *******************************************************************************/
 163:.\Generated_Source\PSoC4/SPIM_1.c **** void SPIM_1_Start(void) 
 164:.\Generated_Source\PSoC4/SPIM_1.c **** {
 165:.\Generated_Source\PSoC4/SPIM_1.c ****     if(0u == SPIM_1_initVar)
 166:.\Generated_Source\PSoC4/SPIM_1.c ****     {
 167:.\Generated_Source\PSoC4/SPIM_1.c ****         SPIM_1_Init();
 168:.\Generated_Source\PSoC4/SPIM_1.c ****         SPIM_1_initVar = 1u;
 169:.\Generated_Source\PSoC4/SPIM_1.c ****     }
 170:.\Generated_Source\PSoC4/SPIM_1.c **** 
 171:.\Generated_Source\PSoC4/SPIM_1.c ****     SPIM_1_Enable();
 172:.\Generated_Source\PSoC4/SPIM_1.c **** }
 173:.\Generated_Source\PSoC4/SPIM_1.c **** 
 174:.\Generated_Source\PSoC4/SPIM_1.c **** 
 175:.\Generated_Source\PSoC4/SPIM_1.c **** /*******************************************************************************
 176:.\Generated_Source\PSoC4/SPIM_1.c **** * Function Name: SPIM_1_Stop
 177:.\Generated_Source\PSoC4/SPIM_1.c **** ********************************************************************************
 178:.\Generated_Source\PSoC4/SPIM_1.c **** *
 179:.\Generated_Source\PSoC4/SPIM_1.c **** * Summary:
 180:.\Generated_Source\PSoC4/SPIM_1.c **** *  Disable the SPI Master component.
 181:.\Generated_Source\PSoC4/SPIM_1.c **** *
 182:.\Generated_Source\PSoC4/SPIM_1.c **** * Parameters:
 183:.\Generated_Source\PSoC4/SPIM_1.c **** *  None.
 184:.\Generated_Source\PSoC4/SPIM_1.c **** *
 185:.\Generated_Source\PSoC4/SPIM_1.c **** * Return:
 186:.\Generated_Source\PSoC4/SPIM_1.c **** *  None.
 187:.\Generated_Source\PSoC4/SPIM_1.c **** *
 188:.\Generated_Source\PSoC4/SPIM_1.c **** * Theory:
 189:.\Generated_Source\PSoC4/SPIM_1.c **** *  Disable the clock input to enable operation.
 190:.\Generated_Source\PSoC4/SPIM_1.c **** *
 191:.\Generated_Source\PSoC4/SPIM_1.c **** *******************************************************************************/
 192:.\Generated_Source\PSoC4/SPIM_1.c **** void SPIM_1_Stop(void) 
 193:.\Generated_Source\PSoC4/SPIM_1.c **** {
  80              		.loc 1 193 0
  81              		.cfi_startproc
  82 0000 08B5     		push	{r3, lr}
  83              		.cfi_def_cfa_offset 8
  84              		.cfi_offset 3, -8
  85              		.cfi_offset 14, -4
 194:.\Generated_Source\PSoC4/SPIM_1.c ****     uint8 enableInterrupts;
 195:.\Generated_Source\PSoC4/SPIM_1.c **** 
 196:.\Generated_Source\PSoC4/SPIM_1.c ****     enableInterrupts = CyEnterCriticalSection();
  86              		.loc 1 196 0
  87 0002 FFF7FEFF 		bl	CyEnterCriticalSection
  88              	.LVL3:
 197:.\Generated_Source\PSoC4/SPIM_1.c ****     SPIM_1_TX_STATUS_ACTL_REG &= ((uint8) ~SPIM_1_INT_ENABLE);
ARM GAS  C:\Users\Calin\AppData\Local\Temp\cc0EsBgx.s 			page 6


  89              		.loc 1 197 0
  90 0006 074A     		ldr	r2, .L5
  91 0008 1378     		ldrb	r3, [r2]
  92 000a 1021     		mov	r1, #16
  93 000c 8B43     		bic	r3, r1
  94 000e 1370     		strb	r3, [r2]
 198:.\Generated_Source\PSoC4/SPIM_1.c ****     SPIM_1_RX_STATUS_ACTL_REG &= ((uint8) ~SPIM_1_INT_ENABLE);
  95              		.loc 1 198 0
  96 0010 054A     		ldr	r2, .L5+4
  97 0012 1378     		ldrb	r3, [r2]
  98 0014 8B43     		bic	r3, r1
  99 0016 1370     		strb	r3, [r2]
 199:.\Generated_Source\PSoC4/SPIM_1.c ****     CyExitCriticalSection(enableInterrupts);
 100              		.loc 1 199 0
 101 0018 FFF7FEFF 		bl	CyExitCriticalSection
 102              	.LVL4:
 200:.\Generated_Source\PSoC4/SPIM_1.c **** 
 201:.\Generated_Source\PSoC4/SPIM_1.c ****     #if(0u != SPIM_1_INTERNAL_CLOCK)
 202:.\Generated_Source\PSoC4/SPIM_1.c ****         SPIM_1_IntClock_Disable();
 103              		.loc 1 202 0
 104 001c FFF7FEFF 		bl	SPIM_1_IntClock_Stop
 105              	.LVL5:
 203:.\Generated_Source\PSoC4/SPIM_1.c ****     #endif /* (0u != SPIM_1_INTERNAL_CLOCK) */
 204:.\Generated_Source\PSoC4/SPIM_1.c **** 
 205:.\Generated_Source\PSoC4/SPIM_1.c ****     SPIM_1_DisableTxInt();
 206:.\Generated_Source\PSoC4/SPIM_1.c ****     SPIM_1_DisableRxInt();
 207:.\Generated_Source\PSoC4/SPIM_1.c **** }
 106              		.loc 1 207 0
 107              		@ sp needed
 108 0020 08BD     		pop	{r3, pc}
 109              	.L6:
 110 0022 C046     		.align	2
 111              	.L5:
 112 0024 93000F40 		.word	1074725011
 113 0028 91000F40 		.word	1074725009
 114              		.cfi_endproc
 115              	.LFE3:
 116              		.size	SPIM_1_Stop, .-SPIM_1_Stop
 117              		.section	.text.SPIM_1_EnableTxInt,"ax",%progbits
 118              		.align	2
 119              		.global	SPIM_1_EnableTxInt
 120              		.code	16
 121              		.thumb_func
 122              		.type	SPIM_1_EnableTxInt, %function
 123              	SPIM_1_EnableTxInt:
 124              	.LFB4:
 208:.\Generated_Source\PSoC4/SPIM_1.c **** 
 209:.\Generated_Source\PSoC4/SPIM_1.c **** 
 210:.\Generated_Source\PSoC4/SPIM_1.c **** /*******************************************************************************
 211:.\Generated_Source\PSoC4/SPIM_1.c **** * Function Name: SPIM_1_EnableTxInt
 212:.\Generated_Source\PSoC4/SPIM_1.c **** ********************************************************************************
 213:.\Generated_Source\PSoC4/SPIM_1.c **** *
 214:.\Generated_Source\PSoC4/SPIM_1.c **** * Summary:
 215:.\Generated_Source\PSoC4/SPIM_1.c **** *  Enable internal Tx interrupt generation.
 216:.\Generated_Source\PSoC4/SPIM_1.c **** *
 217:.\Generated_Source\PSoC4/SPIM_1.c **** * Parameters:
 218:.\Generated_Source\PSoC4/SPIM_1.c **** *  None.
ARM GAS  C:\Users\Calin\AppData\Local\Temp\cc0EsBgx.s 			page 7


 219:.\Generated_Source\PSoC4/SPIM_1.c **** *
 220:.\Generated_Source\PSoC4/SPIM_1.c **** * Return:
 221:.\Generated_Source\PSoC4/SPIM_1.c **** *  None.
 222:.\Generated_Source\PSoC4/SPIM_1.c **** *
 223:.\Generated_Source\PSoC4/SPIM_1.c **** * Theory:
 224:.\Generated_Source\PSoC4/SPIM_1.c **** *  Enable the internal Tx interrupt output -or- the interrupt component itself.
 225:.\Generated_Source\PSoC4/SPIM_1.c **** *
 226:.\Generated_Source\PSoC4/SPIM_1.c **** *******************************************************************************/
 227:.\Generated_Source\PSoC4/SPIM_1.c **** void SPIM_1_EnableTxInt(void) 
 228:.\Generated_Source\PSoC4/SPIM_1.c **** {
 125              		.loc 1 228 0
 126              		.cfi_startproc
 229:.\Generated_Source\PSoC4/SPIM_1.c ****     #if(0u != SPIM_1_INTERNAL_TX_INT_ENABLED)
 230:.\Generated_Source\PSoC4/SPIM_1.c ****         CyIntEnable(SPIM_1_TX_ISR_NUMBER);
 231:.\Generated_Source\PSoC4/SPIM_1.c ****     #endif /* (0u != SPIM_1_INTERNAL_TX_INT_ENABLED) */
 232:.\Generated_Source\PSoC4/SPIM_1.c **** }
 127              		.loc 1 232 0
 128              		@ sp needed
 129 0000 7047     		bx	lr
 130              		.cfi_endproc
 131              	.LFE4:
 132              		.size	SPIM_1_EnableTxInt, .-SPIM_1_EnableTxInt
 133 0002 C046     		.section	.text.SPIM_1_EnableRxInt,"ax",%progbits
 134              		.align	2
 135              		.global	SPIM_1_EnableRxInt
 136              		.code	16
 137              		.thumb_func
 138              		.type	SPIM_1_EnableRxInt, %function
 139              	SPIM_1_EnableRxInt:
 140              	.LFB5:
 233:.\Generated_Source\PSoC4/SPIM_1.c **** 
 234:.\Generated_Source\PSoC4/SPIM_1.c **** 
 235:.\Generated_Source\PSoC4/SPIM_1.c **** /*******************************************************************************
 236:.\Generated_Source\PSoC4/SPIM_1.c **** * Function Name: SPIM_1_EnableRxInt
 237:.\Generated_Source\PSoC4/SPIM_1.c **** ********************************************************************************
 238:.\Generated_Source\PSoC4/SPIM_1.c **** *
 239:.\Generated_Source\PSoC4/SPIM_1.c **** * Summary:
 240:.\Generated_Source\PSoC4/SPIM_1.c **** *  Enable internal Rx interrupt generation.
 241:.\Generated_Source\PSoC4/SPIM_1.c **** *
 242:.\Generated_Source\PSoC4/SPIM_1.c **** * Parameters:
 243:.\Generated_Source\PSoC4/SPIM_1.c **** *  None.
 244:.\Generated_Source\PSoC4/SPIM_1.c **** *
 245:.\Generated_Source\PSoC4/SPIM_1.c **** * Return:
 246:.\Generated_Source\PSoC4/SPIM_1.c **** *  None.
 247:.\Generated_Source\PSoC4/SPIM_1.c **** *
 248:.\Generated_Source\PSoC4/SPIM_1.c **** * Theory:
 249:.\Generated_Source\PSoC4/SPIM_1.c **** *  Enable the internal Rx interrupt output -or- the interrupt component itself.
 250:.\Generated_Source\PSoC4/SPIM_1.c **** *
 251:.\Generated_Source\PSoC4/SPIM_1.c **** *******************************************************************************/
 252:.\Generated_Source\PSoC4/SPIM_1.c **** void SPIM_1_EnableRxInt(void) 
 253:.\Generated_Source\PSoC4/SPIM_1.c **** {
 141              		.loc 1 253 0
 142              		.cfi_startproc
 254:.\Generated_Source\PSoC4/SPIM_1.c ****     #if(0u != SPIM_1_INTERNAL_RX_INT_ENABLED)
 255:.\Generated_Source\PSoC4/SPIM_1.c ****         CyIntEnable(SPIM_1_RX_ISR_NUMBER);
 256:.\Generated_Source\PSoC4/SPIM_1.c ****     #endif /* (0u != SPIM_1_INTERNAL_RX_INT_ENABLED) */
 257:.\Generated_Source\PSoC4/SPIM_1.c **** }
ARM GAS  C:\Users\Calin\AppData\Local\Temp\cc0EsBgx.s 			page 8


 143              		.loc 1 257 0
 144              		@ sp needed
 145 0000 7047     		bx	lr
 146              		.cfi_endproc
 147              	.LFE5:
 148              		.size	SPIM_1_EnableRxInt, .-SPIM_1_EnableRxInt
 149 0002 C046     		.section	.text.SPIM_1_DisableTxInt,"ax",%progbits
 150              		.align	2
 151              		.global	SPIM_1_DisableTxInt
 152              		.code	16
 153              		.thumb_func
 154              		.type	SPIM_1_DisableTxInt, %function
 155              	SPIM_1_DisableTxInt:
 156              	.LFB6:
 258:.\Generated_Source\PSoC4/SPIM_1.c **** 
 259:.\Generated_Source\PSoC4/SPIM_1.c **** 
 260:.\Generated_Source\PSoC4/SPIM_1.c **** /*******************************************************************************
 261:.\Generated_Source\PSoC4/SPIM_1.c **** * Function Name: SPIM_1_DisableTxInt
 262:.\Generated_Source\PSoC4/SPIM_1.c **** ********************************************************************************
 263:.\Generated_Source\PSoC4/SPIM_1.c **** *
 264:.\Generated_Source\PSoC4/SPIM_1.c **** * Summary:
 265:.\Generated_Source\PSoC4/SPIM_1.c **** *  Disable internal Tx interrupt generation.
 266:.\Generated_Source\PSoC4/SPIM_1.c **** *
 267:.\Generated_Source\PSoC4/SPIM_1.c **** * Parameters:
 268:.\Generated_Source\PSoC4/SPIM_1.c **** *  None.
 269:.\Generated_Source\PSoC4/SPIM_1.c **** *
 270:.\Generated_Source\PSoC4/SPIM_1.c **** * Return:
 271:.\Generated_Source\PSoC4/SPIM_1.c **** *  None.
 272:.\Generated_Source\PSoC4/SPIM_1.c **** *
 273:.\Generated_Source\PSoC4/SPIM_1.c **** * Theory:
 274:.\Generated_Source\PSoC4/SPIM_1.c **** *  Disable the internal Tx interrupt output -or- the interrupt component itself.
 275:.\Generated_Source\PSoC4/SPIM_1.c **** *
 276:.\Generated_Source\PSoC4/SPIM_1.c **** *******************************************************************************/
 277:.\Generated_Source\PSoC4/SPIM_1.c **** void SPIM_1_DisableTxInt(void) 
 278:.\Generated_Source\PSoC4/SPIM_1.c **** {
 157              		.loc 1 278 0
 158              		.cfi_startproc
 279:.\Generated_Source\PSoC4/SPIM_1.c ****     #if(0u != SPIM_1_INTERNAL_TX_INT_ENABLED)
 280:.\Generated_Source\PSoC4/SPIM_1.c ****         CyIntDisable(SPIM_1_TX_ISR_NUMBER);
 281:.\Generated_Source\PSoC4/SPIM_1.c ****     #endif /* (0u != SPIM_1_INTERNAL_TX_INT_ENABLED) */
 282:.\Generated_Source\PSoC4/SPIM_1.c **** }
 159              		.loc 1 282 0
 160              		@ sp needed
 161 0000 7047     		bx	lr
 162              		.cfi_endproc
 163              	.LFE6:
 164              		.size	SPIM_1_DisableTxInt, .-SPIM_1_DisableTxInt
 165 0002 C046     		.section	.text.SPIM_1_DisableRxInt,"ax",%progbits
 166              		.align	2
 167              		.global	SPIM_1_DisableRxInt
 168              		.code	16
 169              		.thumb_func
 170              		.type	SPIM_1_DisableRxInt, %function
 171              	SPIM_1_DisableRxInt:
 172              	.LFB7:
 283:.\Generated_Source\PSoC4/SPIM_1.c **** 
 284:.\Generated_Source\PSoC4/SPIM_1.c **** 
ARM GAS  C:\Users\Calin\AppData\Local\Temp\cc0EsBgx.s 			page 9


 285:.\Generated_Source\PSoC4/SPIM_1.c **** /*******************************************************************************
 286:.\Generated_Source\PSoC4/SPIM_1.c **** * Function Name: SPIM_1_DisableRxInt
 287:.\Generated_Source\PSoC4/SPIM_1.c **** ********************************************************************************
 288:.\Generated_Source\PSoC4/SPIM_1.c **** *
 289:.\Generated_Source\PSoC4/SPIM_1.c **** * Summary:
 290:.\Generated_Source\PSoC4/SPIM_1.c **** *  Disable internal Rx interrupt generation.
 291:.\Generated_Source\PSoC4/SPIM_1.c **** *
 292:.\Generated_Source\PSoC4/SPIM_1.c **** * Parameters:
 293:.\Generated_Source\PSoC4/SPIM_1.c **** *  None.
 294:.\Generated_Source\PSoC4/SPIM_1.c **** *
 295:.\Generated_Source\PSoC4/SPIM_1.c **** * Return:
 296:.\Generated_Source\PSoC4/SPIM_1.c **** *  None.
 297:.\Generated_Source\PSoC4/SPIM_1.c **** *
 298:.\Generated_Source\PSoC4/SPIM_1.c **** * Theory:
 299:.\Generated_Source\PSoC4/SPIM_1.c **** *  Disable the internal Rx interrupt output -or- the interrupt component itself.
 300:.\Generated_Source\PSoC4/SPIM_1.c **** *
 301:.\Generated_Source\PSoC4/SPIM_1.c **** *******************************************************************************/
 302:.\Generated_Source\PSoC4/SPIM_1.c **** void SPIM_1_DisableRxInt(void) 
 303:.\Generated_Source\PSoC4/SPIM_1.c **** {
 173              		.loc 1 303 0
 174              		.cfi_startproc
 304:.\Generated_Source\PSoC4/SPIM_1.c ****     #if(0u != SPIM_1_INTERNAL_RX_INT_ENABLED)
 305:.\Generated_Source\PSoC4/SPIM_1.c ****         CyIntDisable(SPIM_1_RX_ISR_NUMBER);
 306:.\Generated_Source\PSoC4/SPIM_1.c ****     #endif /* (0u != SPIM_1_INTERNAL_RX_INT_ENABLED) */
 307:.\Generated_Source\PSoC4/SPIM_1.c **** }
 175              		.loc 1 307 0
 176              		@ sp needed
 177 0000 7047     		bx	lr
 178              		.cfi_endproc
 179              	.LFE7:
 180              		.size	SPIM_1_DisableRxInt, .-SPIM_1_DisableRxInt
 181 0002 C046     		.section	.text.SPIM_1_SetTxInterruptMode,"ax",%progbits
 182              		.align	2
 183              		.global	SPIM_1_SetTxInterruptMode
 184              		.code	16
 185              		.thumb_func
 186              		.type	SPIM_1_SetTxInterruptMode, %function
 187              	SPIM_1_SetTxInterruptMode:
 188              	.LFB8:
 308:.\Generated_Source\PSoC4/SPIM_1.c **** 
 309:.\Generated_Source\PSoC4/SPIM_1.c **** 
 310:.\Generated_Source\PSoC4/SPIM_1.c **** /*******************************************************************************
 311:.\Generated_Source\PSoC4/SPIM_1.c **** * Function Name: SPIM_1_SetTxInterruptMode
 312:.\Generated_Source\PSoC4/SPIM_1.c **** ********************************************************************************
 313:.\Generated_Source\PSoC4/SPIM_1.c **** *
 314:.\Generated_Source\PSoC4/SPIM_1.c **** * Summary:
 315:.\Generated_Source\PSoC4/SPIM_1.c **** *  Configure which status bits trigger an interrupt event.
 316:.\Generated_Source\PSoC4/SPIM_1.c **** *
 317:.\Generated_Source\PSoC4/SPIM_1.c **** * Parameters:
 318:.\Generated_Source\PSoC4/SPIM_1.c **** *  intSrc: An or'd combination of the desired status bit masks (defined in the
 319:.\Generated_Source\PSoC4/SPIM_1.c **** *  header file).
 320:.\Generated_Source\PSoC4/SPIM_1.c **** *
 321:.\Generated_Source\PSoC4/SPIM_1.c **** * Return:
 322:.\Generated_Source\PSoC4/SPIM_1.c **** *  None.
 323:.\Generated_Source\PSoC4/SPIM_1.c **** *
 324:.\Generated_Source\PSoC4/SPIM_1.c **** * Theory:
 325:.\Generated_Source\PSoC4/SPIM_1.c **** *  Enables the output of specific status bits to the interrupt controller.
ARM GAS  C:\Users\Calin\AppData\Local\Temp\cc0EsBgx.s 			page 10


 326:.\Generated_Source\PSoC4/SPIM_1.c **** *
 327:.\Generated_Source\PSoC4/SPIM_1.c **** *******************************************************************************/
 328:.\Generated_Source\PSoC4/SPIM_1.c **** void SPIM_1_SetTxInterruptMode(uint8 intSrc) 
 329:.\Generated_Source\PSoC4/SPIM_1.c **** {
 189              		.loc 1 329 0
 190              		.cfi_startproc
 191              	.LVL6:
 330:.\Generated_Source\PSoC4/SPIM_1.c ****     SPIM_1_TX_STATUS_MASK_REG = intSrc;
 192              		.loc 1 330 0
 193 0000 014B     		ldr	r3, .L12
 194 0002 1870     		strb	r0, [r3]
 331:.\Generated_Source\PSoC4/SPIM_1.c **** }
 195              		.loc 1 331 0
 196              		@ sp needed
 197 0004 7047     		bx	lr
 198              	.L13:
 199 0006 C046     		.align	2
 200              	.L12:
 201 0008 83000F40 		.word	1074724995
 202              		.cfi_endproc
 203              	.LFE8:
 204              		.size	SPIM_1_SetTxInterruptMode, .-SPIM_1_SetTxInterruptMode
 205              		.section	.text.SPIM_1_SetRxInterruptMode,"ax",%progbits
 206              		.align	2
 207              		.global	SPIM_1_SetRxInterruptMode
 208              		.code	16
 209              		.thumb_func
 210              		.type	SPIM_1_SetRxInterruptMode, %function
 211              	SPIM_1_SetRxInterruptMode:
 212              	.LFB9:
 332:.\Generated_Source\PSoC4/SPIM_1.c **** 
 333:.\Generated_Source\PSoC4/SPIM_1.c **** 
 334:.\Generated_Source\PSoC4/SPIM_1.c **** /*******************************************************************************
 335:.\Generated_Source\PSoC4/SPIM_1.c **** * Function Name: SPIM_1_SetRxInterruptMode
 336:.\Generated_Source\PSoC4/SPIM_1.c **** ********************************************************************************
 337:.\Generated_Source\PSoC4/SPIM_1.c **** *
 338:.\Generated_Source\PSoC4/SPIM_1.c **** * Summary:
 339:.\Generated_Source\PSoC4/SPIM_1.c **** *  Configure which status bits trigger an interrupt event.
 340:.\Generated_Source\PSoC4/SPIM_1.c **** *
 341:.\Generated_Source\PSoC4/SPIM_1.c **** * Parameters:
 342:.\Generated_Source\PSoC4/SPIM_1.c **** *  intSrc: An or'd combination of the desired status bit masks (defined in the
 343:.\Generated_Source\PSoC4/SPIM_1.c **** *  header file).
 344:.\Generated_Source\PSoC4/SPIM_1.c **** *
 345:.\Generated_Source\PSoC4/SPIM_1.c **** * Return:
 346:.\Generated_Source\PSoC4/SPIM_1.c **** *  None.
 347:.\Generated_Source\PSoC4/SPIM_1.c **** *
 348:.\Generated_Source\PSoC4/SPIM_1.c **** * Theory:
 349:.\Generated_Source\PSoC4/SPIM_1.c **** *  Enables the output of specific status bits to the interrupt controller.
 350:.\Generated_Source\PSoC4/SPIM_1.c **** *
 351:.\Generated_Source\PSoC4/SPIM_1.c **** *******************************************************************************/
 352:.\Generated_Source\PSoC4/SPIM_1.c **** void SPIM_1_SetRxInterruptMode(uint8 intSrc) 
 353:.\Generated_Source\PSoC4/SPIM_1.c **** {
 213              		.loc 1 353 0
 214              		.cfi_startproc
 215              	.LVL7:
 354:.\Generated_Source\PSoC4/SPIM_1.c ****     SPIM_1_RX_STATUS_MASK_REG  = intSrc;
 216              		.loc 1 354 0
ARM GAS  C:\Users\Calin\AppData\Local\Temp\cc0EsBgx.s 			page 11


 217 0000 014B     		ldr	r3, .L15
 218 0002 1870     		strb	r0, [r3]
 355:.\Generated_Source\PSoC4/SPIM_1.c **** }
 219              		.loc 1 355 0
 220              		@ sp needed
 221 0004 7047     		bx	lr
 222              	.L16:
 223 0006 C046     		.align	2
 224              	.L15:
 225 0008 81000F40 		.word	1074724993
 226              		.cfi_endproc
 227              	.LFE9:
 228              		.size	SPIM_1_SetRxInterruptMode, .-SPIM_1_SetRxInterruptMode
 229              		.section	.text.SPIM_1_ReadTxStatus,"ax",%progbits
 230              		.align	2
 231              		.global	SPIM_1_ReadTxStatus
 232              		.code	16
 233              		.thumb_func
 234              		.type	SPIM_1_ReadTxStatus, %function
 235              	SPIM_1_ReadTxStatus:
 236              	.LFB10:
 356:.\Generated_Source\PSoC4/SPIM_1.c **** 
 357:.\Generated_Source\PSoC4/SPIM_1.c **** 
 358:.\Generated_Source\PSoC4/SPIM_1.c **** /*******************************************************************************
 359:.\Generated_Source\PSoC4/SPIM_1.c **** * Function Name: SPIM_1_ReadTxStatus
 360:.\Generated_Source\PSoC4/SPIM_1.c **** ********************************************************************************
 361:.\Generated_Source\PSoC4/SPIM_1.c **** *
 362:.\Generated_Source\PSoC4/SPIM_1.c **** * Summary:
 363:.\Generated_Source\PSoC4/SPIM_1.c **** *  Read the Tx status register for the component.
 364:.\Generated_Source\PSoC4/SPIM_1.c **** *
 365:.\Generated_Source\PSoC4/SPIM_1.c **** * Parameters:
 366:.\Generated_Source\PSoC4/SPIM_1.c **** *  None.
 367:.\Generated_Source\PSoC4/SPIM_1.c **** *
 368:.\Generated_Source\PSoC4/SPIM_1.c **** * Return:
 369:.\Generated_Source\PSoC4/SPIM_1.c **** *  Contents of the Tx status register.
 370:.\Generated_Source\PSoC4/SPIM_1.c **** *
 371:.\Generated_Source\PSoC4/SPIM_1.c **** * Global variables:
 372:.\Generated_Source\PSoC4/SPIM_1.c **** *  SPIM_1_swStatusTx - used to store in software status register,
 373:.\Generated_Source\PSoC4/SPIM_1.c **** *  modified every function call - resets to zero.
 374:.\Generated_Source\PSoC4/SPIM_1.c **** *
 375:.\Generated_Source\PSoC4/SPIM_1.c **** * Theory:
 376:.\Generated_Source\PSoC4/SPIM_1.c **** *  Allows the user and the API to read the Tx status register for error
 377:.\Generated_Source\PSoC4/SPIM_1.c **** *  detection and flow control.
 378:.\Generated_Source\PSoC4/SPIM_1.c **** *
 379:.\Generated_Source\PSoC4/SPIM_1.c **** * Side Effects:
 380:.\Generated_Source\PSoC4/SPIM_1.c **** *  Clear Tx status register of the component.
 381:.\Generated_Source\PSoC4/SPIM_1.c **** *
 382:.\Generated_Source\PSoC4/SPIM_1.c **** * Reentrant:
 383:.\Generated_Source\PSoC4/SPIM_1.c **** *  No.
 384:.\Generated_Source\PSoC4/SPIM_1.c **** *
 385:.\Generated_Source\PSoC4/SPIM_1.c **** *******************************************************************************/
 386:.\Generated_Source\PSoC4/SPIM_1.c **** uint8 SPIM_1_ReadTxStatus(void) 
 387:.\Generated_Source\PSoC4/SPIM_1.c **** {
 237              		.loc 1 387 0
 238              		.cfi_startproc
 388:.\Generated_Source\PSoC4/SPIM_1.c ****     uint8 tmpStatus;
 389:.\Generated_Source\PSoC4/SPIM_1.c **** 
ARM GAS  C:\Users\Calin\AppData\Local\Temp\cc0EsBgx.s 			page 12


 390:.\Generated_Source\PSoC4/SPIM_1.c ****     #if(SPIM_1_TX_SOFTWARE_BUF_ENABLED)
 391:.\Generated_Source\PSoC4/SPIM_1.c ****         /* Disable TX interrupt to protect global veriables */
 392:.\Generated_Source\PSoC4/SPIM_1.c ****         SPIM_1_DisableTxInt();
 393:.\Generated_Source\PSoC4/SPIM_1.c **** 
 394:.\Generated_Source\PSoC4/SPIM_1.c ****         tmpStatus = SPIM_1_GET_STATUS_TX(SPIM_1_swStatusTx);
 395:.\Generated_Source\PSoC4/SPIM_1.c ****         SPIM_1_swStatusTx = 0u;
 396:.\Generated_Source\PSoC4/SPIM_1.c **** 
 397:.\Generated_Source\PSoC4/SPIM_1.c ****         SPIM_1_EnableTxInt();
 398:.\Generated_Source\PSoC4/SPIM_1.c **** 
 399:.\Generated_Source\PSoC4/SPIM_1.c ****     #else
 400:.\Generated_Source\PSoC4/SPIM_1.c **** 
 401:.\Generated_Source\PSoC4/SPIM_1.c ****         tmpStatus = SPIM_1_TX_STATUS_REG;
 239              		.loc 1 401 0
 240 0000 014B     		ldr	r3, .L18
 241 0002 1878     		ldrb	r0, [r3]
 242 0004 C0B2     		uxtb	r0, r0
 243              	.LVL8:
 402:.\Generated_Source\PSoC4/SPIM_1.c **** 
 403:.\Generated_Source\PSoC4/SPIM_1.c ****     #endif /* (SPIM_1_TX_SOFTWARE_BUF_ENABLED) */
 404:.\Generated_Source\PSoC4/SPIM_1.c **** 
 405:.\Generated_Source\PSoC4/SPIM_1.c ****     return(tmpStatus);
 406:.\Generated_Source\PSoC4/SPIM_1.c **** }
 244              		.loc 1 406 0
 245              		@ sp needed
 246 0006 7047     		bx	lr
 247              	.L19:
 248              		.align	2
 249              	.L18:
 250 0008 63000F40 		.word	1074724963
 251              		.cfi_endproc
 252              	.LFE10:
 253              		.size	SPIM_1_ReadTxStatus, .-SPIM_1_ReadTxStatus
 254              		.section	.text.SPIM_1_ReadRxStatus,"ax",%progbits
 255              		.align	2
 256              		.global	SPIM_1_ReadRxStatus
 257              		.code	16
 258              		.thumb_func
 259              		.type	SPIM_1_ReadRxStatus, %function
 260              	SPIM_1_ReadRxStatus:
 261              	.LFB11:
 407:.\Generated_Source\PSoC4/SPIM_1.c **** 
 408:.\Generated_Source\PSoC4/SPIM_1.c **** 
 409:.\Generated_Source\PSoC4/SPIM_1.c **** /*******************************************************************************
 410:.\Generated_Source\PSoC4/SPIM_1.c **** * Function Name: SPIM_1_ReadRxStatus
 411:.\Generated_Source\PSoC4/SPIM_1.c **** ********************************************************************************
 412:.\Generated_Source\PSoC4/SPIM_1.c **** *
 413:.\Generated_Source\PSoC4/SPIM_1.c **** * Summary:
 414:.\Generated_Source\PSoC4/SPIM_1.c **** *  Read the Rx status register for the component.
 415:.\Generated_Source\PSoC4/SPIM_1.c **** *
 416:.\Generated_Source\PSoC4/SPIM_1.c **** * Parameters:
 417:.\Generated_Source\PSoC4/SPIM_1.c **** *  None.
 418:.\Generated_Source\PSoC4/SPIM_1.c **** *
 419:.\Generated_Source\PSoC4/SPIM_1.c **** * Return:
 420:.\Generated_Source\PSoC4/SPIM_1.c **** *  Contents of the Rx status register.
 421:.\Generated_Source\PSoC4/SPIM_1.c **** *
 422:.\Generated_Source\PSoC4/SPIM_1.c **** * Global variables:
 423:.\Generated_Source\PSoC4/SPIM_1.c **** *  SPIM_1_swStatusRx - used to store in software Rx status register,
ARM GAS  C:\Users\Calin\AppData\Local\Temp\cc0EsBgx.s 			page 13


 424:.\Generated_Source\PSoC4/SPIM_1.c **** *  modified every function call - resets to zero.
 425:.\Generated_Source\PSoC4/SPIM_1.c **** *
 426:.\Generated_Source\PSoC4/SPIM_1.c **** * Theory:
 427:.\Generated_Source\PSoC4/SPIM_1.c **** *  Allows the user and the API to read the Rx status register for error
 428:.\Generated_Source\PSoC4/SPIM_1.c **** *  detection and flow control.
 429:.\Generated_Source\PSoC4/SPIM_1.c **** *
 430:.\Generated_Source\PSoC4/SPIM_1.c **** * Side Effects:
 431:.\Generated_Source\PSoC4/SPIM_1.c **** *  Clear Rx status register of the component.
 432:.\Generated_Source\PSoC4/SPIM_1.c **** *
 433:.\Generated_Source\PSoC4/SPIM_1.c **** * Reentrant:
 434:.\Generated_Source\PSoC4/SPIM_1.c **** *  No.
 435:.\Generated_Source\PSoC4/SPIM_1.c **** *
 436:.\Generated_Source\PSoC4/SPIM_1.c **** *******************************************************************************/
 437:.\Generated_Source\PSoC4/SPIM_1.c **** uint8 SPIM_1_ReadRxStatus(void) 
 438:.\Generated_Source\PSoC4/SPIM_1.c **** {
 262              		.loc 1 438 0
 263              		.cfi_startproc
 439:.\Generated_Source\PSoC4/SPIM_1.c ****     uint8 tmpStatus;
 440:.\Generated_Source\PSoC4/SPIM_1.c **** 
 441:.\Generated_Source\PSoC4/SPIM_1.c ****     #if(SPIM_1_RX_SOFTWARE_BUF_ENABLED)
 442:.\Generated_Source\PSoC4/SPIM_1.c ****         /* Disable RX interrupt to protect global veriables */
 443:.\Generated_Source\PSoC4/SPIM_1.c ****         SPIM_1_DisableRxInt();
 444:.\Generated_Source\PSoC4/SPIM_1.c **** 
 445:.\Generated_Source\PSoC4/SPIM_1.c ****         tmpStatus = SPIM_1_GET_STATUS_RX(SPIM_1_swStatusRx);
 446:.\Generated_Source\PSoC4/SPIM_1.c ****         SPIM_1_swStatusRx = 0u;
 447:.\Generated_Source\PSoC4/SPIM_1.c **** 
 448:.\Generated_Source\PSoC4/SPIM_1.c ****         SPIM_1_EnableRxInt();
 449:.\Generated_Source\PSoC4/SPIM_1.c **** 
 450:.\Generated_Source\PSoC4/SPIM_1.c ****     #else
 451:.\Generated_Source\PSoC4/SPIM_1.c **** 
 452:.\Generated_Source\PSoC4/SPIM_1.c ****         tmpStatus = SPIM_1_RX_STATUS_REG;
 264              		.loc 1 452 0
 265 0000 014B     		ldr	r3, .L21
 266 0002 1878     		ldrb	r0, [r3]
 267 0004 C0B2     		uxtb	r0, r0
 268              	.LVL9:
 453:.\Generated_Source\PSoC4/SPIM_1.c **** 
 454:.\Generated_Source\PSoC4/SPIM_1.c ****     #endif /* (SPIM_1_RX_SOFTWARE_BUF_ENABLED) */
 455:.\Generated_Source\PSoC4/SPIM_1.c **** 
 456:.\Generated_Source\PSoC4/SPIM_1.c ****     return(tmpStatus);
 457:.\Generated_Source\PSoC4/SPIM_1.c **** }
 269              		.loc 1 457 0
 270              		@ sp needed
 271 0006 7047     		bx	lr
 272              	.L22:
 273              		.align	2
 274              	.L21:
 275 0008 61000F40 		.word	1074724961
 276              		.cfi_endproc
 277              	.LFE11:
 278              		.size	SPIM_1_ReadRxStatus, .-SPIM_1_ReadRxStatus
 279              		.section	.text.SPIM_1_WriteTxData,"ax",%progbits
 280              		.align	2
 281              		.global	SPIM_1_WriteTxData
 282              		.code	16
 283              		.thumb_func
 284              		.type	SPIM_1_WriteTxData, %function
ARM GAS  C:\Users\Calin\AppData\Local\Temp\cc0EsBgx.s 			page 14


 285              	SPIM_1_WriteTxData:
 286              	.LFB12:
 458:.\Generated_Source\PSoC4/SPIM_1.c **** 
 459:.\Generated_Source\PSoC4/SPIM_1.c **** 
 460:.\Generated_Source\PSoC4/SPIM_1.c **** /*******************************************************************************
 461:.\Generated_Source\PSoC4/SPIM_1.c **** * Function Name: SPIM_1_WriteTxData
 462:.\Generated_Source\PSoC4/SPIM_1.c **** ********************************************************************************
 463:.\Generated_Source\PSoC4/SPIM_1.c **** *
 464:.\Generated_Source\PSoC4/SPIM_1.c **** * Summary:
 465:.\Generated_Source\PSoC4/SPIM_1.c **** *  Write a byte of data to be sent across the SPI.
 466:.\Generated_Source\PSoC4/SPIM_1.c **** *
 467:.\Generated_Source\PSoC4/SPIM_1.c **** * Parameters:
 468:.\Generated_Source\PSoC4/SPIM_1.c **** *  txDataByte: The data value to send across the SPI.
 469:.\Generated_Source\PSoC4/SPIM_1.c **** *
 470:.\Generated_Source\PSoC4/SPIM_1.c **** * Return:
 471:.\Generated_Source\PSoC4/SPIM_1.c **** *  None.
 472:.\Generated_Source\PSoC4/SPIM_1.c **** *
 473:.\Generated_Source\PSoC4/SPIM_1.c **** * Global variables:
 474:.\Generated_Source\PSoC4/SPIM_1.c **** *  SPIM_1_txBufferWrite - used for the account of the bytes which
 475:.\Generated_Source\PSoC4/SPIM_1.c **** *  have been written down in the TX software buffer, modified every function
 476:.\Generated_Source\PSoC4/SPIM_1.c **** *  call if TX Software Buffer is used.
 477:.\Generated_Source\PSoC4/SPIM_1.c **** *  SPIM_1_txBufferRead - used for the account of the bytes which
 478:.\Generated_Source\PSoC4/SPIM_1.c **** *  have been read from the TX software buffer.
 479:.\Generated_Source\PSoC4/SPIM_1.c **** *  SPIM_1_txBuffer[SPIM_1_TX_BUFFER_SIZE] - used to store
 480:.\Generated_Source\PSoC4/SPIM_1.c **** *  data to sending, modified every function call if TX Software Buffer is used.
 481:.\Generated_Source\PSoC4/SPIM_1.c **** *
 482:.\Generated_Source\PSoC4/SPIM_1.c **** * Theory:
 483:.\Generated_Source\PSoC4/SPIM_1.c **** *  Allows the user to transmit any byte of data in a single transfer.
 484:.\Generated_Source\PSoC4/SPIM_1.c **** *
 485:.\Generated_Source\PSoC4/SPIM_1.c **** * Side Effects:
 486:.\Generated_Source\PSoC4/SPIM_1.c **** *  If this function is called again before the previous byte is finished then
 487:.\Generated_Source\PSoC4/SPIM_1.c **** *  the next byte will be appended to the transfer with no time between
 488:.\Generated_Source\PSoC4/SPIM_1.c **** *  the byte transfers. Clear Tx status register of the component.
 489:.\Generated_Source\PSoC4/SPIM_1.c **** *
 490:.\Generated_Source\PSoC4/SPIM_1.c **** * Reentrant:
 491:.\Generated_Source\PSoC4/SPIM_1.c **** *  No.
 492:.\Generated_Source\PSoC4/SPIM_1.c **** *
 493:.\Generated_Source\PSoC4/SPIM_1.c **** *******************************************************************************/
 494:.\Generated_Source\PSoC4/SPIM_1.c **** void SPIM_1_WriteTxData(uint8 txData) 
 495:.\Generated_Source\PSoC4/SPIM_1.c **** {
 287              		.loc 1 495 0
 288              		.cfi_startproc
 289              	.LVL10:
 290              	.L24:
 496:.\Generated_Source\PSoC4/SPIM_1.c ****     #if(SPIM_1_TX_SOFTWARE_BUF_ENABLED)
 497:.\Generated_Source\PSoC4/SPIM_1.c **** 
 498:.\Generated_Source\PSoC4/SPIM_1.c ****         uint8 tempStatus;
 499:.\Generated_Source\PSoC4/SPIM_1.c ****         uint8 tmpTxBufferRead;
 500:.\Generated_Source\PSoC4/SPIM_1.c **** 
 501:.\Generated_Source\PSoC4/SPIM_1.c ****         /* Block if TX buffer is FULL: don't overwrite */
 502:.\Generated_Source\PSoC4/SPIM_1.c ****         do
 503:.\Generated_Source\PSoC4/SPIM_1.c ****         {
 504:.\Generated_Source\PSoC4/SPIM_1.c ****             tmpTxBufferRead = SPIM_1_txBufferRead;
 505:.\Generated_Source\PSoC4/SPIM_1.c ****             if(0u == tmpTxBufferRead)
 506:.\Generated_Source\PSoC4/SPIM_1.c ****             {
 507:.\Generated_Source\PSoC4/SPIM_1.c ****                 tmpTxBufferRead = (SPIM_1_TX_BUFFER_SIZE - 1u);
 508:.\Generated_Source\PSoC4/SPIM_1.c ****             }
ARM GAS  C:\Users\Calin\AppData\Local\Temp\cc0EsBgx.s 			page 15


 509:.\Generated_Source\PSoC4/SPIM_1.c ****             else
 510:.\Generated_Source\PSoC4/SPIM_1.c ****             {
 511:.\Generated_Source\PSoC4/SPIM_1.c ****                 tmpTxBufferRead--;
 512:.\Generated_Source\PSoC4/SPIM_1.c ****             }
 513:.\Generated_Source\PSoC4/SPIM_1.c **** 
 514:.\Generated_Source\PSoC4/SPIM_1.c ****         }while(tmpTxBufferRead == SPIM_1_txBufferWrite);
 515:.\Generated_Source\PSoC4/SPIM_1.c **** 
 516:.\Generated_Source\PSoC4/SPIM_1.c ****         /* Disable TX interrupt to protect global veriables */
 517:.\Generated_Source\PSoC4/SPIM_1.c ****         SPIM_1_DisableTxInt();
 518:.\Generated_Source\PSoC4/SPIM_1.c **** 
 519:.\Generated_Source\PSoC4/SPIM_1.c ****         tempStatus = SPIM_1_GET_STATUS_TX(SPIM_1_swStatusTx);
 520:.\Generated_Source\PSoC4/SPIM_1.c ****         SPIM_1_swStatusTx = tempStatus;
 521:.\Generated_Source\PSoC4/SPIM_1.c **** 
 522:.\Generated_Source\PSoC4/SPIM_1.c **** 
 523:.\Generated_Source\PSoC4/SPIM_1.c ****         if((SPIM_1_txBufferRead == SPIM_1_txBufferWrite) &&
 524:.\Generated_Source\PSoC4/SPIM_1.c ****            (0u != (SPIM_1_swStatusTx & SPIM_1_STS_TX_FIFO_NOT_FULL)))
 525:.\Generated_Source\PSoC4/SPIM_1.c ****         {
 526:.\Generated_Source\PSoC4/SPIM_1.c ****             /* Put data element into the TX FIFO */
 527:.\Generated_Source\PSoC4/SPIM_1.c ****             CY_SET_REG8(SPIM_1_TXDATA_PTR, txData);
 528:.\Generated_Source\PSoC4/SPIM_1.c ****         }
 529:.\Generated_Source\PSoC4/SPIM_1.c ****         else
 530:.\Generated_Source\PSoC4/SPIM_1.c ****         {
 531:.\Generated_Source\PSoC4/SPIM_1.c ****             /* Add to the TX software buffer */
 532:.\Generated_Source\PSoC4/SPIM_1.c ****             SPIM_1_txBufferWrite++;
 533:.\Generated_Source\PSoC4/SPIM_1.c ****             if(SPIM_1_txBufferWrite >= SPIM_1_TX_BUFFER_SIZE)
 534:.\Generated_Source\PSoC4/SPIM_1.c ****             {
 535:.\Generated_Source\PSoC4/SPIM_1.c ****                 SPIM_1_txBufferWrite = 0u;
 536:.\Generated_Source\PSoC4/SPIM_1.c ****             }
 537:.\Generated_Source\PSoC4/SPIM_1.c **** 
 538:.\Generated_Source\PSoC4/SPIM_1.c ****             if(SPIM_1_txBufferWrite == SPIM_1_txBufferRead)
 539:.\Generated_Source\PSoC4/SPIM_1.c ****             {
 540:.\Generated_Source\PSoC4/SPIM_1.c ****                 SPIM_1_txBufferRead++;
 541:.\Generated_Source\PSoC4/SPIM_1.c ****                 if(SPIM_1_txBufferRead >= SPIM_1_TX_BUFFER_SIZE)
 542:.\Generated_Source\PSoC4/SPIM_1.c ****                 {
 543:.\Generated_Source\PSoC4/SPIM_1.c ****                     SPIM_1_txBufferRead = 0u;
 544:.\Generated_Source\PSoC4/SPIM_1.c ****                 }
 545:.\Generated_Source\PSoC4/SPIM_1.c ****                 SPIM_1_txBufferFull = 1u;
 546:.\Generated_Source\PSoC4/SPIM_1.c ****             }
 547:.\Generated_Source\PSoC4/SPIM_1.c **** 
 548:.\Generated_Source\PSoC4/SPIM_1.c ****             SPIM_1_txBuffer[SPIM_1_txBufferWrite] = txData;
 549:.\Generated_Source\PSoC4/SPIM_1.c **** 
 550:.\Generated_Source\PSoC4/SPIM_1.c ****             SPIM_1_TX_STATUS_MASK_REG |= SPIM_1_STS_TX_FIFO_NOT_FULL;
 551:.\Generated_Source\PSoC4/SPIM_1.c ****         }
 552:.\Generated_Source\PSoC4/SPIM_1.c **** 
 553:.\Generated_Source\PSoC4/SPIM_1.c ****         SPIM_1_EnableTxInt();
 554:.\Generated_Source\PSoC4/SPIM_1.c **** 
 555:.\Generated_Source\PSoC4/SPIM_1.c ****     #else
 556:.\Generated_Source\PSoC4/SPIM_1.c ****         /* Wait until TX FIFO has a place */
 557:.\Generated_Source\PSoC4/SPIM_1.c ****         while(0u == (SPIM_1_TX_STATUS_REG & SPIM_1_STS_TX_FIFO_NOT_FULL))
 291              		.loc 1 557 0 discriminator 1
 292 0000 034B     		ldr	r3, .L25
 293 0002 1B78     		ldrb	r3, [r3]
 294 0004 5B07     		lsl	r3, r3, #29
 295 0006 FBD5     		bpl	.L24
 558:.\Generated_Source\PSoC4/SPIM_1.c ****         {
 559:.\Generated_Source\PSoC4/SPIM_1.c ****         }
 560:.\Generated_Source\PSoC4/SPIM_1.c **** 
ARM GAS  C:\Users\Calin\AppData\Local\Temp\cc0EsBgx.s 			page 16


 561:.\Generated_Source\PSoC4/SPIM_1.c ****         /* Put data element into the TX FIFO */
 562:.\Generated_Source\PSoC4/SPIM_1.c ****         CY_SET_REG8(SPIM_1_TXDATA_PTR, txData);
 296              		.loc 1 562 0
 297 0008 024B     		ldr	r3, .L25+4
 298 000a 1870     		strb	r0, [r3]
 563:.\Generated_Source\PSoC4/SPIM_1.c **** 
 564:.\Generated_Source\PSoC4/SPIM_1.c ****     #endif /* (SPIM_1_TX_SOFTWARE_BUF_ENABLED) */
 565:.\Generated_Source\PSoC4/SPIM_1.c **** }
 299              		.loc 1 565 0
 300              		@ sp needed
 301 000c 7047     		bx	lr
 302              	.L26:
 303 000e C046     		.align	2
 304              	.L25:
 305 0010 63000F40 		.word	1074724963
 306 0014 42000F40 		.word	1074724930
 307              		.cfi_endproc
 308              	.LFE12:
 309              		.size	SPIM_1_WriteTxData, .-SPIM_1_WriteTxData
 310              		.section	.text.SPIM_1_ReadRxData,"ax",%progbits
 311              		.align	2
 312              		.global	SPIM_1_ReadRxData
 313              		.code	16
 314              		.thumb_func
 315              		.type	SPIM_1_ReadRxData, %function
 316              	SPIM_1_ReadRxData:
 317              	.LFB13:
 566:.\Generated_Source\PSoC4/SPIM_1.c **** 
 567:.\Generated_Source\PSoC4/SPIM_1.c **** 
 568:.\Generated_Source\PSoC4/SPIM_1.c **** /*******************************************************************************
 569:.\Generated_Source\PSoC4/SPIM_1.c **** * Function Name: SPIM_1_ReadRxData
 570:.\Generated_Source\PSoC4/SPIM_1.c **** ********************************************************************************
 571:.\Generated_Source\PSoC4/SPIM_1.c **** *
 572:.\Generated_Source\PSoC4/SPIM_1.c **** * Summary:
 573:.\Generated_Source\PSoC4/SPIM_1.c **** *  Read the next byte of data received across the SPI.
 574:.\Generated_Source\PSoC4/SPIM_1.c **** *
 575:.\Generated_Source\PSoC4/SPIM_1.c **** * Parameters:
 576:.\Generated_Source\PSoC4/SPIM_1.c **** *  None.
 577:.\Generated_Source\PSoC4/SPIM_1.c **** *
 578:.\Generated_Source\PSoC4/SPIM_1.c **** * Return:
 579:.\Generated_Source\PSoC4/SPIM_1.c **** *  The next byte of data read from the FIFO.
 580:.\Generated_Source\PSoC4/SPIM_1.c **** *
 581:.\Generated_Source\PSoC4/SPIM_1.c **** * Global variables:
 582:.\Generated_Source\PSoC4/SPIM_1.c **** *  SPIM_1_rxBufferWrite - used for the account of the bytes which
 583:.\Generated_Source\PSoC4/SPIM_1.c **** *  have been written down in the RX software buffer.
 584:.\Generated_Source\PSoC4/SPIM_1.c **** *  SPIM_1_rxBufferRead - used for the account of the bytes which
 585:.\Generated_Source\PSoC4/SPIM_1.c **** *  have been read from the RX software buffer, modified every function
 586:.\Generated_Source\PSoC4/SPIM_1.c **** *  call if RX Software Buffer is used.
 587:.\Generated_Source\PSoC4/SPIM_1.c **** *  SPIM_1_rxBuffer[SPIM_1_RX_BUFFER_SIZE] - used to store
 588:.\Generated_Source\PSoC4/SPIM_1.c **** *  received data.
 589:.\Generated_Source\PSoC4/SPIM_1.c **** *
 590:.\Generated_Source\PSoC4/SPIM_1.c **** * Theory:
 591:.\Generated_Source\PSoC4/SPIM_1.c **** *  Allows the user to read a byte of data received.
 592:.\Generated_Source\PSoC4/SPIM_1.c **** *
 593:.\Generated_Source\PSoC4/SPIM_1.c **** * Side Effects:
 594:.\Generated_Source\PSoC4/SPIM_1.c **** *  Will return invalid data if the FIFO is empty. The user should Call
 595:.\Generated_Source\PSoC4/SPIM_1.c **** *  GetRxBufferSize() and if it returns a non-zero value then it is safe to call
ARM GAS  C:\Users\Calin\AppData\Local\Temp\cc0EsBgx.s 			page 17


 596:.\Generated_Source\PSoC4/SPIM_1.c **** *  ReadByte() function.
 597:.\Generated_Source\PSoC4/SPIM_1.c **** *
 598:.\Generated_Source\PSoC4/SPIM_1.c **** * Reentrant:
 599:.\Generated_Source\PSoC4/SPIM_1.c **** *  No.
 600:.\Generated_Source\PSoC4/SPIM_1.c **** *
 601:.\Generated_Source\PSoC4/SPIM_1.c **** *******************************************************************************/
 602:.\Generated_Source\PSoC4/SPIM_1.c **** uint8 SPIM_1_ReadRxData(void) 
 603:.\Generated_Source\PSoC4/SPIM_1.c **** {
 318              		.loc 1 603 0
 319              		.cfi_startproc
 604:.\Generated_Source\PSoC4/SPIM_1.c ****     uint8 rxData;
 605:.\Generated_Source\PSoC4/SPIM_1.c **** 
 606:.\Generated_Source\PSoC4/SPIM_1.c ****     #if(SPIM_1_RX_SOFTWARE_BUF_ENABLED)
 607:.\Generated_Source\PSoC4/SPIM_1.c **** 
 608:.\Generated_Source\PSoC4/SPIM_1.c ****         /* Disable RX interrupt to protect global veriables */
 609:.\Generated_Source\PSoC4/SPIM_1.c ****         SPIM_1_DisableRxInt();
 610:.\Generated_Source\PSoC4/SPIM_1.c **** 
 611:.\Generated_Source\PSoC4/SPIM_1.c ****         if(SPIM_1_rxBufferRead != SPIM_1_rxBufferWrite)
 612:.\Generated_Source\PSoC4/SPIM_1.c ****         {
 613:.\Generated_Source\PSoC4/SPIM_1.c ****             if(0u == SPIM_1_rxBufferFull)
 614:.\Generated_Source\PSoC4/SPIM_1.c ****             {
 615:.\Generated_Source\PSoC4/SPIM_1.c ****                 SPIM_1_rxBufferRead++;
 616:.\Generated_Source\PSoC4/SPIM_1.c ****                 if(SPIM_1_rxBufferRead >= SPIM_1_RX_BUFFER_SIZE)
 617:.\Generated_Source\PSoC4/SPIM_1.c ****                 {
 618:.\Generated_Source\PSoC4/SPIM_1.c ****                     SPIM_1_rxBufferRead = 0u;
 619:.\Generated_Source\PSoC4/SPIM_1.c ****                 }
 620:.\Generated_Source\PSoC4/SPIM_1.c ****             }
 621:.\Generated_Source\PSoC4/SPIM_1.c ****             else
 622:.\Generated_Source\PSoC4/SPIM_1.c ****             {
 623:.\Generated_Source\PSoC4/SPIM_1.c ****                 SPIM_1_rxBufferFull = 0u;
 624:.\Generated_Source\PSoC4/SPIM_1.c ****             }
 625:.\Generated_Source\PSoC4/SPIM_1.c ****         }
 626:.\Generated_Source\PSoC4/SPIM_1.c **** 
 627:.\Generated_Source\PSoC4/SPIM_1.c ****         rxData = SPIM_1_rxBuffer[SPIM_1_rxBufferRead];
 628:.\Generated_Source\PSoC4/SPIM_1.c **** 
 629:.\Generated_Source\PSoC4/SPIM_1.c ****         SPIM_1_EnableRxInt();
 630:.\Generated_Source\PSoC4/SPIM_1.c **** 
 631:.\Generated_Source\PSoC4/SPIM_1.c ****     #else
 632:.\Generated_Source\PSoC4/SPIM_1.c **** 
 633:.\Generated_Source\PSoC4/SPIM_1.c ****         rxData = CY_GET_REG8(SPIM_1_RXDATA_PTR);
 320              		.loc 1 633 0
 321 0000 014B     		ldr	r3, .L28
 322 0002 1878     		ldrb	r0, [r3]
 323 0004 C0B2     		uxtb	r0, r0
 324              	.LVL11:
 634:.\Generated_Source\PSoC4/SPIM_1.c **** 
 635:.\Generated_Source\PSoC4/SPIM_1.c ****     #endif /* (SPIM_1_RX_SOFTWARE_BUF_ENABLED) */
 636:.\Generated_Source\PSoC4/SPIM_1.c **** 
 637:.\Generated_Source\PSoC4/SPIM_1.c ****     return(rxData);
 638:.\Generated_Source\PSoC4/SPIM_1.c **** }
 325              		.loc 1 638 0
 326              		@ sp needed
 327 0006 7047     		bx	lr
 328              	.L29:
 329              		.align	2
 330              	.L28:
 331 0008 52000F40 		.word	1074724946
ARM GAS  C:\Users\Calin\AppData\Local\Temp\cc0EsBgx.s 			page 18


 332              		.cfi_endproc
 333              	.LFE13:
 334              		.size	SPIM_1_ReadRxData, .-SPIM_1_ReadRxData
 335              		.section	.text.SPIM_1_GetRxBufferSize,"ax",%progbits
 336              		.align	2
 337              		.global	SPIM_1_GetRxBufferSize
 338              		.code	16
 339              		.thumb_func
 340              		.type	SPIM_1_GetRxBufferSize, %function
 341              	SPIM_1_GetRxBufferSize:
 342              	.LFB14:
 639:.\Generated_Source\PSoC4/SPIM_1.c **** 
 640:.\Generated_Source\PSoC4/SPIM_1.c **** 
 641:.\Generated_Source\PSoC4/SPIM_1.c **** /*******************************************************************************
 642:.\Generated_Source\PSoC4/SPIM_1.c **** * Function Name: SPIM_1_GetRxBufferSize
 643:.\Generated_Source\PSoC4/SPIM_1.c **** ********************************************************************************
 644:.\Generated_Source\PSoC4/SPIM_1.c **** *
 645:.\Generated_Source\PSoC4/SPIM_1.c **** * Summary:
 646:.\Generated_Source\PSoC4/SPIM_1.c **** *  Returns the number of bytes/words of data currently held in the RX buffer.
 647:.\Generated_Source\PSoC4/SPIM_1.c **** *  If RX Software Buffer not used then function return 0 if FIFO empty or 1 if
 648:.\Generated_Source\PSoC4/SPIM_1.c **** *  FIFO not empty. In another case function return size of RX Software Buffer.
 649:.\Generated_Source\PSoC4/SPIM_1.c **** *
 650:.\Generated_Source\PSoC4/SPIM_1.c **** * Parameters:
 651:.\Generated_Source\PSoC4/SPIM_1.c **** *  None.
 652:.\Generated_Source\PSoC4/SPIM_1.c **** *
 653:.\Generated_Source\PSoC4/SPIM_1.c **** * Return:
 654:.\Generated_Source\PSoC4/SPIM_1.c **** *  Integer count of the number of bytes/words in the RX buffer.
 655:.\Generated_Source\PSoC4/SPIM_1.c **** *
 656:.\Generated_Source\PSoC4/SPIM_1.c **** * Global variables:
 657:.\Generated_Source\PSoC4/SPIM_1.c **** *  SPIM_1_rxBufferWrite - used for the account of the bytes which
 658:.\Generated_Source\PSoC4/SPIM_1.c **** *  have been written down in the RX software buffer.
 659:.\Generated_Source\PSoC4/SPIM_1.c **** *  SPIM_1_rxBufferRead - used for the account of the bytes which
 660:.\Generated_Source\PSoC4/SPIM_1.c **** *  have been read from the RX software buffer.
 661:.\Generated_Source\PSoC4/SPIM_1.c **** *
 662:.\Generated_Source\PSoC4/SPIM_1.c **** * Side Effects:
 663:.\Generated_Source\PSoC4/SPIM_1.c **** *  Clear status register of the component.
 664:.\Generated_Source\PSoC4/SPIM_1.c **** *
 665:.\Generated_Source\PSoC4/SPIM_1.c **** *******************************************************************************/
 666:.\Generated_Source\PSoC4/SPIM_1.c **** uint8 SPIM_1_GetRxBufferSize(void) 
 667:.\Generated_Source\PSoC4/SPIM_1.c **** {
 343              		.loc 1 667 0
 344              		.cfi_startproc
 668:.\Generated_Source\PSoC4/SPIM_1.c ****     uint8 size;
 669:.\Generated_Source\PSoC4/SPIM_1.c **** 
 670:.\Generated_Source\PSoC4/SPIM_1.c ****     #if(SPIM_1_RX_SOFTWARE_BUF_ENABLED)
 671:.\Generated_Source\PSoC4/SPIM_1.c **** 
 672:.\Generated_Source\PSoC4/SPIM_1.c ****         /* Disable RX interrupt to protect global veriables */
 673:.\Generated_Source\PSoC4/SPIM_1.c ****         SPIM_1_DisableRxInt();
 674:.\Generated_Source\PSoC4/SPIM_1.c **** 
 675:.\Generated_Source\PSoC4/SPIM_1.c ****         if(SPIM_1_rxBufferRead == SPIM_1_rxBufferWrite)
 676:.\Generated_Source\PSoC4/SPIM_1.c ****         {
 677:.\Generated_Source\PSoC4/SPIM_1.c ****             size = 0u;
 678:.\Generated_Source\PSoC4/SPIM_1.c ****         }
 679:.\Generated_Source\PSoC4/SPIM_1.c ****         else if(SPIM_1_rxBufferRead < SPIM_1_rxBufferWrite)
 680:.\Generated_Source\PSoC4/SPIM_1.c ****         {
 681:.\Generated_Source\PSoC4/SPIM_1.c ****             size = (SPIM_1_rxBufferWrite - SPIM_1_rxBufferRead);
 682:.\Generated_Source\PSoC4/SPIM_1.c ****         }
ARM GAS  C:\Users\Calin\AppData\Local\Temp\cc0EsBgx.s 			page 19


 683:.\Generated_Source\PSoC4/SPIM_1.c ****         else
 684:.\Generated_Source\PSoC4/SPIM_1.c ****         {
 685:.\Generated_Source\PSoC4/SPIM_1.c ****             size = (SPIM_1_RX_BUFFER_SIZE - SPIM_1_rxBufferRead) + SPIM_1_rxBufferWrite;
 686:.\Generated_Source\PSoC4/SPIM_1.c ****         }
 687:.\Generated_Source\PSoC4/SPIM_1.c **** 
 688:.\Generated_Source\PSoC4/SPIM_1.c ****         SPIM_1_EnableRxInt();
 689:.\Generated_Source\PSoC4/SPIM_1.c **** 
 690:.\Generated_Source\PSoC4/SPIM_1.c ****     #else
 691:.\Generated_Source\PSoC4/SPIM_1.c **** 
 692:.\Generated_Source\PSoC4/SPIM_1.c ****         /* We can only know if there is data in the RX FIFO */
 693:.\Generated_Source\PSoC4/SPIM_1.c ****         size = (0u != (SPIM_1_RX_STATUS_REG & SPIM_1_STS_RX_FIFO_NOT_EMPTY)) ? 1u : 0u;
 345              		.loc 1 693 0
 346 0000 034B     		ldr	r3, .L33
 347 0002 1B78     		ldrb	r3, [r3]
 348 0004 9B06     		lsl	r3, r3, #26
 349 0006 01D5     		bpl	.L32
 350 0008 0120     		mov	r0, #1
 351 000a 00E0     		b	.L31
 352              	.L32:
 353 000c 0020     		mov	r0, #0
 354              	.L31:
 355              	.LVL12:
 694:.\Generated_Source\PSoC4/SPIM_1.c **** 
 695:.\Generated_Source\PSoC4/SPIM_1.c ****     #endif /* (SPIM_1_TX_SOFTWARE_BUF_ENABLED) */
 696:.\Generated_Source\PSoC4/SPIM_1.c **** 
 697:.\Generated_Source\PSoC4/SPIM_1.c ****     return(size);
 698:.\Generated_Source\PSoC4/SPIM_1.c **** }
 356              		.loc 1 698 0 discriminator 4
 357              		@ sp needed
 358 000e 7047     		bx	lr
 359              	.L34:
 360              		.align	2
 361              	.L33:
 362 0010 61000F40 		.word	1074724961
 363              		.cfi_endproc
 364              	.LFE14:
 365              		.size	SPIM_1_GetRxBufferSize, .-SPIM_1_GetRxBufferSize
 366              		.section	.text.SPIM_1_GetTxBufferSize,"ax",%progbits
 367              		.align	2
 368              		.global	SPIM_1_GetTxBufferSize
 369              		.code	16
 370              		.thumb_func
 371              		.type	SPIM_1_GetTxBufferSize, %function
 372              	SPIM_1_GetTxBufferSize:
 373              	.LFB15:
 699:.\Generated_Source\PSoC4/SPIM_1.c **** 
 700:.\Generated_Source\PSoC4/SPIM_1.c **** 
 701:.\Generated_Source\PSoC4/SPIM_1.c **** /*******************************************************************************
 702:.\Generated_Source\PSoC4/SPIM_1.c **** * Function Name: SPIM_1_GetTxBufferSize
 703:.\Generated_Source\PSoC4/SPIM_1.c **** ********************************************************************************
 704:.\Generated_Source\PSoC4/SPIM_1.c **** *
 705:.\Generated_Source\PSoC4/SPIM_1.c **** * Summary:
 706:.\Generated_Source\PSoC4/SPIM_1.c **** *  Returns the number of bytes/words of data currently held in the TX buffer.
 707:.\Generated_Source\PSoC4/SPIM_1.c **** *  If TX Software Buffer not used then function return 0 - if FIFO empty, 1 - if
 708:.\Generated_Source\PSoC4/SPIM_1.c **** *  FIFO not full, 4 - if FIFO full. In another case function return size of TX
 709:.\Generated_Source\PSoC4/SPIM_1.c **** *  Software Buffer.
 710:.\Generated_Source\PSoC4/SPIM_1.c **** *
ARM GAS  C:\Users\Calin\AppData\Local\Temp\cc0EsBgx.s 			page 20


 711:.\Generated_Source\PSoC4/SPIM_1.c **** * Parameters:
 712:.\Generated_Source\PSoC4/SPIM_1.c **** *  None.
 713:.\Generated_Source\PSoC4/SPIM_1.c **** *
 714:.\Generated_Source\PSoC4/SPIM_1.c **** * Return:
 715:.\Generated_Source\PSoC4/SPIM_1.c **** *  Integer count of the number of bytes/words in the TX buffer.
 716:.\Generated_Source\PSoC4/SPIM_1.c **** *
 717:.\Generated_Source\PSoC4/SPIM_1.c **** * Global variables:
 718:.\Generated_Source\PSoC4/SPIM_1.c **** *  SPIM_1_txBufferWrite - used for the account of the bytes which
 719:.\Generated_Source\PSoC4/SPIM_1.c **** *  have been written down in the TX software buffer.
 720:.\Generated_Source\PSoC4/SPIM_1.c **** *  SPIM_1_txBufferRead - used for the account of the bytes which
 721:.\Generated_Source\PSoC4/SPIM_1.c **** *  have been read from the TX software buffer.
 722:.\Generated_Source\PSoC4/SPIM_1.c **** *
 723:.\Generated_Source\PSoC4/SPIM_1.c **** * Side Effects:
 724:.\Generated_Source\PSoC4/SPIM_1.c **** *  Clear status register of the component.
 725:.\Generated_Source\PSoC4/SPIM_1.c **** *
 726:.\Generated_Source\PSoC4/SPIM_1.c **** *******************************************************************************/
 727:.\Generated_Source\PSoC4/SPIM_1.c **** uint8  SPIM_1_GetTxBufferSize(void) 
 728:.\Generated_Source\PSoC4/SPIM_1.c **** {
 374              		.loc 1 728 0
 375              		.cfi_startproc
 729:.\Generated_Source\PSoC4/SPIM_1.c ****     uint8 size;
 730:.\Generated_Source\PSoC4/SPIM_1.c **** 
 731:.\Generated_Source\PSoC4/SPIM_1.c ****     #if(SPIM_1_TX_SOFTWARE_BUF_ENABLED)
 732:.\Generated_Source\PSoC4/SPIM_1.c ****         /* Disable TX interrupt to protect global veriables */
 733:.\Generated_Source\PSoC4/SPIM_1.c ****         SPIM_1_DisableTxInt();
 734:.\Generated_Source\PSoC4/SPIM_1.c **** 
 735:.\Generated_Source\PSoC4/SPIM_1.c ****         if(SPIM_1_txBufferRead == SPIM_1_txBufferWrite)
 736:.\Generated_Source\PSoC4/SPIM_1.c ****         {
 737:.\Generated_Source\PSoC4/SPIM_1.c ****             size = 0u;
 738:.\Generated_Source\PSoC4/SPIM_1.c ****         }
 739:.\Generated_Source\PSoC4/SPIM_1.c ****         else if(SPIM_1_txBufferRead < SPIM_1_txBufferWrite)
 740:.\Generated_Source\PSoC4/SPIM_1.c ****         {
 741:.\Generated_Source\PSoC4/SPIM_1.c ****             size = (SPIM_1_txBufferWrite - SPIM_1_txBufferRead);
 742:.\Generated_Source\PSoC4/SPIM_1.c ****         }
 743:.\Generated_Source\PSoC4/SPIM_1.c ****         else
 744:.\Generated_Source\PSoC4/SPIM_1.c ****         {
 745:.\Generated_Source\PSoC4/SPIM_1.c ****             size = (SPIM_1_TX_BUFFER_SIZE - SPIM_1_txBufferRead) + SPIM_1_txBufferWrite;
 746:.\Generated_Source\PSoC4/SPIM_1.c ****         }
 747:.\Generated_Source\PSoC4/SPIM_1.c **** 
 748:.\Generated_Source\PSoC4/SPIM_1.c ****         SPIM_1_EnableTxInt();
 749:.\Generated_Source\PSoC4/SPIM_1.c **** 
 750:.\Generated_Source\PSoC4/SPIM_1.c ****     #else
 751:.\Generated_Source\PSoC4/SPIM_1.c **** 
 752:.\Generated_Source\PSoC4/SPIM_1.c ****         size = SPIM_1_TX_STATUS_REG;
 376              		.loc 1 752 0
 377 0000 064B     		ldr	r3, .L39
 378 0002 1B78     		ldrb	r3, [r3]
 379 0004 DBB2     		uxtb	r3, r3
 380              	.LVL13:
 753:.\Generated_Source\PSoC4/SPIM_1.c **** 
 754:.\Generated_Source\PSoC4/SPIM_1.c ****         if(0u != (size & SPIM_1_STS_TX_FIFO_EMPTY))
 381              		.loc 1 754 0
 382 0006 9A07     		lsl	r2, r3, #30
 383 0008 03D4     		bmi	.L37
 755:.\Generated_Source\PSoC4/SPIM_1.c ****         {
 756:.\Generated_Source\PSoC4/SPIM_1.c ****             size = 0u;
 757:.\Generated_Source\PSoC4/SPIM_1.c ****         }
ARM GAS  C:\Users\Calin\AppData\Local\Temp\cc0EsBgx.s 			page 21


 758:.\Generated_Source\PSoC4/SPIM_1.c ****         else if(0u != (size & SPIM_1_STS_TX_FIFO_NOT_FULL))
 384              		.loc 1 758 0
 385 000a 5B07     		lsl	r3, r3, #29
 386 000c 03D5     		bpl	.L38
 387              	.LVL14:
 759:.\Generated_Source\PSoC4/SPIM_1.c ****         {
 760:.\Generated_Source\PSoC4/SPIM_1.c ****             size = 1u;
 388              		.loc 1 760 0
 389 000e 0120     		mov	r0, #1
 390 0010 02E0     		b	.L36
 391              	.LVL15:
 392              	.L37:
 756:.\Generated_Source\PSoC4/SPIM_1.c ****         }
 393              		.loc 1 756 0
 394 0012 0020     		mov	r0, #0
 395 0014 00E0     		b	.L36
 396              	.LVL16:
 397              	.L38:
 761:.\Generated_Source\PSoC4/SPIM_1.c ****         }
 762:.\Generated_Source\PSoC4/SPIM_1.c ****         else
 763:.\Generated_Source\PSoC4/SPIM_1.c ****         {
 764:.\Generated_Source\PSoC4/SPIM_1.c ****             size = SPIM_1_FIFO_SIZE;
 398              		.loc 1 764 0
 399 0016 0420     		mov	r0, #4
 400              	.L36:
 401              	.LVL17:
 765:.\Generated_Source\PSoC4/SPIM_1.c ****         }
 766:.\Generated_Source\PSoC4/SPIM_1.c **** 
 767:.\Generated_Source\PSoC4/SPIM_1.c ****     #endif /* (SPIM_1_TX_SOFTWARE_BUF_ENABLED) */
 768:.\Generated_Source\PSoC4/SPIM_1.c **** 
 769:.\Generated_Source\PSoC4/SPIM_1.c ****     return(size);
 770:.\Generated_Source\PSoC4/SPIM_1.c **** }
 402              		.loc 1 770 0
 403              		@ sp needed
 404 0018 7047     		bx	lr
 405              	.L40:
 406 001a C046     		.align	2
 407              	.L39:
 408 001c 63000F40 		.word	1074724963
 409              		.cfi_endproc
 410              	.LFE15:
 411              		.size	SPIM_1_GetTxBufferSize, .-SPIM_1_GetTxBufferSize
 412              		.section	.text.SPIM_1_ClearRxBuffer,"ax",%progbits
 413              		.align	2
 414              		.global	SPIM_1_ClearRxBuffer
 415              		.code	16
 416              		.thumb_func
 417              		.type	SPIM_1_ClearRxBuffer, %function
 418              	SPIM_1_ClearRxBuffer:
 419              	.LFB16:
 771:.\Generated_Source\PSoC4/SPIM_1.c **** 
 772:.\Generated_Source\PSoC4/SPIM_1.c **** 
 773:.\Generated_Source\PSoC4/SPIM_1.c **** /*******************************************************************************
 774:.\Generated_Source\PSoC4/SPIM_1.c **** * Function Name: SPIM_1_ClearRxBuffer
 775:.\Generated_Source\PSoC4/SPIM_1.c **** ********************************************************************************
 776:.\Generated_Source\PSoC4/SPIM_1.c **** *
 777:.\Generated_Source\PSoC4/SPIM_1.c **** * Summary:
ARM GAS  C:\Users\Calin\AppData\Local\Temp\cc0EsBgx.s 			page 22


 778:.\Generated_Source\PSoC4/SPIM_1.c **** *  Clear the RX RAM buffer by setting the read and write pointers both to zero.
 779:.\Generated_Source\PSoC4/SPIM_1.c **** *
 780:.\Generated_Source\PSoC4/SPIM_1.c **** * Parameters:
 781:.\Generated_Source\PSoC4/SPIM_1.c **** *  None.
 782:.\Generated_Source\PSoC4/SPIM_1.c **** *
 783:.\Generated_Source\PSoC4/SPIM_1.c **** * Return:
 784:.\Generated_Source\PSoC4/SPIM_1.c **** *  None.
 785:.\Generated_Source\PSoC4/SPIM_1.c **** *
 786:.\Generated_Source\PSoC4/SPIM_1.c **** * Global variables:
 787:.\Generated_Source\PSoC4/SPIM_1.c **** *  SPIM_1_rxBufferWrite - used for the account of the bytes which
 788:.\Generated_Source\PSoC4/SPIM_1.c **** *  have been written down in the RX software buffer, modified every function
 789:.\Generated_Source\PSoC4/SPIM_1.c **** *  call - resets to zero.
 790:.\Generated_Source\PSoC4/SPIM_1.c **** *  SPIM_1_rxBufferRead - used for the account of the bytes which
 791:.\Generated_Source\PSoC4/SPIM_1.c **** *  have been read from the RX software buffer, modified every function call -
 792:.\Generated_Source\PSoC4/SPIM_1.c **** *  resets to zero.
 793:.\Generated_Source\PSoC4/SPIM_1.c **** *
 794:.\Generated_Source\PSoC4/SPIM_1.c **** * Theory:
 795:.\Generated_Source\PSoC4/SPIM_1.c **** *  Setting the pointers to zero makes the system believe there is no data to
 796:.\Generated_Source\PSoC4/SPIM_1.c **** *  read and writing will resume at address 0 overwriting any data that may have
 797:.\Generated_Source\PSoC4/SPIM_1.c **** *  remained in the RAM.
 798:.\Generated_Source\PSoC4/SPIM_1.c **** *
 799:.\Generated_Source\PSoC4/SPIM_1.c **** * Side Effects:
 800:.\Generated_Source\PSoC4/SPIM_1.c **** *  Any received data not read from the RAM buffer will be lost when overwritten.
 801:.\Generated_Source\PSoC4/SPIM_1.c **** *
 802:.\Generated_Source\PSoC4/SPIM_1.c **** * Reentrant:
 803:.\Generated_Source\PSoC4/SPIM_1.c **** *  No.
 804:.\Generated_Source\PSoC4/SPIM_1.c **** *
 805:.\Generated_Source\PSoC4/SPIM_1.c **** *******************************************************************************/
 806:.\Generated_Source\PSoC4/SPIM_1.c **** void SPIM_1_ClearRxBuffer(void) 
 807:.\Generated_Source\PSoC4/SPIM_1.c **** {
 420              		.loc 1 807 0
 421              		.cfi_startproc
 808:.\Generated_Source\PSoC4/SPIM_1.c ****     /* Clear Hardware RX FIFO */
 809:.\Generated_Source\PSoC4/SPIM_1.c ****     while(0u !=(SPIM_1_RX_STATUS_REG & SPIM_1_STS_RX_FIFO_NOT_EMPTY))
 422              		.loc 1 809 0
 423 0000 01E0     		b	.L42
 424              	.L43:
 810:.\Generated_Source\PSoC4/SPIM_1.c ****     {
 811:.\Generated_Source\PSoC4/SPIM_1.c ****         (void) CY_GET_REG8(SPIM_1_RXDATA_PTR);
 425              		.loc 1 811 0
 426 0002 034B     		ldr	r3, .L44
 427 0004 1B78     		ldrb	r3, [r3]
 428              	.L42:
 809:.\Generated_Source\PSoC4/SPIM_1.c ****     {
 429              		.loc 1 809 0
 430 0006 034B     		ldr	r3, .L44+4
 431 0008 1B78     		ldrb	r3, [r3]
 432 000a 9B06     		lsl	r3, r3, #26
 433 000c F9D4     		bmi	.L43
 812:.\Generated_Source\PSoC4/SPIM_1.c ****     }
 813:.\Generated_Source\PSoC4/SPIM_1.c **** 
 814:.\Generated_Source\PSoC4/SPIM_1.c ****     #if(SPIM_1_RX_SOFTWARE_BUF_ENABLED)
 815:.\Generated_Source\PSoC4/SPIM_1.c ****         /* Disable RX interrupt to protect global veriables */
 816:.\Generated_Source\PSoC4/SPIM_1.c ****         SPIM_1_DisableRxInt();
 817:.\Generated_Source\PSoC4/SPIM_1.c **** 
 818:.\Generated_Source\PSoC4/SPIM_1.c ****         SPIM_1_rxBufferFull  = 0u;
 819:.\Generated_Source\PSoC4/SPIM_1.c ****         SPIM_1_rxBufferRead  = 0u;
ARM GAS  C:\Users\Calin\AppData\Local\Temp\cc0EsBgx.s 			page 23


 820:.\Generated_Source\PSoC4/SPIM_1.c ****         SPIM_1_rxBufferWrite = 0u;
 821:.\Generated_Source\PSoC4/SPIM_1.c **** 
 822:.\Generated_Source\PSoC4/SPIM_1.c ****         SPIM_1_EnableRxInt();
 823:.\Generated_Source\PSoC4/SPIM_1.c ****     #endif /* (SPIM_1_RX_SOFTWARE_BUF_ENABLED) */
 824:.\Generated_Source\PSoC4/SPIM_1.c **** }
 434              		.loc 1 824 0
 435              		@ sp needed
 436 000e 7047     		bx	lr
 437              	.L45:
 438              		.align	2
 439              	.L44:
 440 0010 52000F40 		.word	1074724946
 441 0014 61000F40 		.word	1074724961
 442              		.cfi_endproc
 443              	.LFE16:
 444              		.size	SPIM_1_ClearRxBuffer, .-SPIM_1_ClearRxBuffer
 445              		.section	.text.SPIM_1_ClearTxBuffer,"ax",%progbits
 446              		.align	2
 447              		.global	SPIM_1_ClearTxBuffer
 448              		.code	16
 449              		.thumb_func
 450              		.type	SPIM_1_ClearTxBuffer, %function
 451              	SPIM_1_ClearTxBuffer:
 452              	.LFB17:
 825:.\Generated_Source\PSoC4/SPIM_1.c **** 
 826:.\Generated_Source\PSoC4/SPIM_1.c **** 
 827:.\Generated_Source\PSoC4/SPIM_1.c **** /*******************************************************************************
 828:.\Generated_Source\PSoC4/SPIM_1.c **** * Function Name: SPIM_1_ClearTxBuffer
 829:.\Generated_Source\PSoC4/SPIM_1.c **** ********************************************************************************
 830:.\Generated_Source\PSoC4/SPIM_1.c **** *
 831:.\Generated_Source\PSoC4/SPIM_1.c **** * Summary:
 832:.\Generated_Source\PSoC4/SPIM_1.c **** *  Clear the TX RAM buffer by setting the read and write pointers both to zero.
 833:.\Generated_Source\PSoC4/SPIM_1.c **** *
 834:.\Generated_Source\PSoC4/SPIM_1.c **** * Parameters:
 835:.\Generated_Source\PSoC4/SPIM_1.c **** *  None.
 836:.\Generated_Source\PSoC4/SPIM_1.c **** *
 837:.\Generated_Source\PSoC4/SPIM_1.c **** * Return:
 838:.\Generated_Source\PSoC4/SPIM_1.c **** *  None.
 839:.\Generated_Source\PSoC4/SPIM_1.c **** *
 840:.\Generated_Source\PSoC4/SPIM_1.c **** * Global variables:
 841:.\Generated_Source\PSoC4/SPIM_1.c **** *  SPIM_1_txBufferWrite - used for the account of the bytes which
 842:.\Generated_Source\PSoC4/SPIM_1.c **** *  have been written down in the TX software buffer, modified every function
 843:.\Generated_Source\PSoC4/SPIM_1.c **** *  call - resets to zero.
 844:.\Generated_Source\PSoC4/SPIM_1.c **** *  SPIM_1_txBufferRead - used for the account of the bytes which
 845:.\Generated_Source\PSoC4/SPIM_1.c **** *  have been read from the TX software buffer, modified every function call -
 846:.\Generated_Source\PSoC4/SPIM_1.c **** *  resets to zero.
 847:.\Generated_Source\PSoC4/SPIM_1.c **** *
 848:.\Generated_Source\PSoC4/SPIM_1.c **** * Theory:
 849:.\Generated_Source\PSoC4/SPIM_1.c **** *  Setting the pointers to zero makes the system believe there is no data to
 850:.\Generated_Source\PSoC4/SPIM_1.c **** *  read and writing will resume at address 0 overwriting any data that may have
 851:.\Generated_Source\PSoC4/SPIM_1.c **** *  remained in the RAM.
 852:.\Generated_Source\PSoC4/SPIM_1.c **** *
 853:.\Generated_Source\PSoC4/SPIM_1.c **** * Side Effects:
 854:.\Generated_Source\PSoC4/SPIM_1.c **** *  Any data not yet transmitted from the RAM buffer will be lost when
 855:.\Generated_Source\PSoC4/SPIM_1.c **** *  overwritten.
 856:.\Generated_Source\PSoC4/SPIM_1.c **** *
 857:.\Generated_Source\PSoC4/SPIM_1.c **** * Reentrant:
ARM GAS  C:\Users\Calin\AppData\Local\Temp\cc0EsBgx.s 			page 24


 858:.\Generated_Source\PSoC4/SPIM_1.c **** *  No.
 859:.\Generated_Source\PSoC4/SPIM_1.c **** *
 860:.\Generated_Source\PSoC4/SPIM_1.c **** *******************************************************************************/
 861:.\Generated_Source\PSoC4/SPIM_1.c **** void SPIM_1_ClearTxBuffer(void) 
 862:.\Generated_Source\PSoC4/SPIM_1.c **** {
 453              		.loc 1 862 0
 454              		.cfi_startproc
 455 0000 08B5     		push	{r3, lr}
 456              		.cfi_def_cfa_offset 8
 457              		.cfi_offset 3, -8
 458              		.cfi_offset 14, -4
 863:.\Generated_Source\PSoC4/SPIM_1.c ****     uint8 enableInterrupts;
 864:.\Generated_Source\PSoC4/SPIM_1.c **** 
 865:.\Generated_Source\PSoC4/SPIM_1.c ****     enableInterrupts = CyEnterCriticalSection();
 459              		.loc 1 865 0
 460 0002 FFF7FEFF 		bl	CyEnterCriticalSection
 461              	.LVL18:
 866:.\Generated_Source\PSoC4/SPIM_1.c ****     /* Clear TX FIFO */
 867:.\Generated_Source\PSoC4/SPIM_1.c ****     SPIM_1_AUX_CONTROL_DP0_REG |= ((uint8)  SPIM_1_TX_FIFO_CLR);
 462              		.loc 1 867 0
 463 0006 064B     		ldr	r3, .L47
 464 0008 1978     		ldrb	r1, [r3]
 465 000a 0122     		mov	r2, #1
 466 000c 0A43     		orr	r2, r1
 467 000e 1A70     		strb	r2, [r3]
 868:.\Generated_Source\PSoC4/SPIM_1.c ****     SPIM_1_AUX_CONTROL_DP0_REG &= ((uint8) ~SPIM_1_TX_FIFO_CLR);
 468              		.loc 1 868 0
 469 0010 1A78     		ldrb	r2, [r3]
 470 0012 0121     		mov	r1, #1
 471 0014 8A43     		bic	r2, r1
 472 0016 1A70     		strb	r2, [r3]
 869:.\Generated_Source\PSoC4/SPIM_1.c **** 
 870:.\Generated_Source\PSoC4/SPIM_1.c ****     #if(SPIM_1_USE_SECOND_DATAPATH)
 871:.\Generated_Source\PSoC4/SPIM_1.c ****         /* Clear TX FIFO for 2nd Datapath */
 872:.\Generated_Source\PSoC4/SPIM_1.c ****         SPIM_1_AUX_CONTROL_DP1_REG |= ((uint8)  SPIM_1_TX_FIFO_CLR);
 873:.\Generated_Source\PSoC4/SPIM_1.c ****         SPIM_1_AUX_CONTROL_DP1_REG &= ((uint8) ~SPIM_1_TX_FIFO_CLR);
 874:.\Generated_Source\PSoC4/SPIM_1.c ****     #endif /* (SPIM_1_USE_SECOND_DATAPATH) */
 875:.\Generated_Source\PSoC4/SPIM_1.c ****     CyExitCriticalSection(enableInterrupts);
 473              		.loc 1 875 0
 474 0018 FFF7FEFF 		bl	CyExitCriticalSection
 475              	.LVL19:
 876:.\Generated_Source\PSoC4/SPIM_1.c **** 
 877:.\Generated_Source\PSoC4/SPIM_1.c ****     #if(SPIM_1_TX_SOFTWARE_BUF_ENABLED)
 878:.\Generated_Source\PSoC4/SPIM_1.c ****         /* Disable TX interrupt to protect global veriables */
 879:.\Generated_Source\PSoC4/SPIM_1.c ****         SPIM_1_DisableTxInt();
 880:.\Generated_Source\PSoC4/SPIM_1.c **** 
 881:.\Generated_Source\PSoC4/SPIM_1.c ****         SPIM_1_txBufferFull  = 0u;
 882:.\Generated_Source\PSoC4/SPIM_1.c ****         SPIM_1_txBufferRead  = 0u;
 883:.\Generated_Source\PSoC4/SPIM_1.c ****         SPIM_1_txBufferWrite = 0u;
 884:.\Generated_Source\PSoC4/SPIM_1.c **** 
 885:.\Generated_Source\PSoC4/SPIM_1.c ****         /* Buffer is EMPTY: disable TX FIFO NOT FULL interrupt */
 886:.\Generated_Source\PSoC4/SPIM_1.c ****         SPIM_1_TX_STATUS_MASK_REG &= ((uint8) ~SPIM_1_STS_TX_FIFO_NOT_FULL);
 887:.\Generated_Source\PSoC4/SPIM_1.c **** 
 888:.\Generated_Source\PSoC4/SPIM_1.c ****         SPIM_1_EnableTxInt();
 889:.\Generated_Source\PSoC4/SPIM_1.c ****     #endif /* (SPIM_1_TX_SOFTWARE_BUF_ENABLED) */
 890:.\Generated_Source\PSoC4/SPIM_1.c **** }
 476              		.loc 1 890 0
ARM GAS  C:\Users\Calin\AppData\Local\Temp\cc0EsBgx.s 			page 25


 477              		@ sp needed
 478 001c 08BD     		pop	{r3, pc}
 479              	.L48:
 480 001e C046     		.align	2
 481              	.L47:
 482 0020 92000F40 		.word	1074725010
 483              		.cfi_endproc
 484              	.LFE17:
 485              		.size	SPIM_1_ClearTxBuffer, .-SPIM_1_ClearTxBuffer
 486              		.section	.text.SPIM_1_PutArray,"ax",%progbits
 487              		.align	2
 488              		.global	SPIM_1_PutArray
 489              		.code	16
 490              		.thumb_func
 491              		.type	SPIM_1_PutArray, %function
 492              	SPIM_1_PutArray:
 493              	.LFB18:
 891:.\Generated_Source\PSoC4/SPIM_1.c **** 
 892:.\Generated_Source\PSoC4/SPIM_1.c **** 
 893:.\Generated_Source\PSoC4/SPIM_1.c **** #if(0u != SPIM_1_BIDIRECTIONAL_MODE)
 894:.\Generated_Source\PSoC4/SPIM_1.c ****     /*******************************************************************************
 895:.\Generated_Source\PSoC4/SPIM_1.c ****     * Function Name: SPIM_1_TxEnable
 896:.\Generated_Source\PSoC4/SPIM_1.c ****     ********************************************************************************
 897:.\Generated_Source\PSoC4/SPIM_1.c ****     *
 898:.\Generated_Source\PSoC4/SPIM_1.c ****     * Summary:
 899:.\Generated_Source\PSoC4/SPIM_1.c ****     *  If the SPI master is configured to use a single bi-directional pin then this
 900:.\Generated_Source\PSoC4/SPIM_1.c ****     *  will set the bi-directional pin to transmit.
 901:.\Generated_Source\PSoC4/SPIM_1.c ****     *
 902:.\Generated_Source\PSoC4/SPIM_1.c ****     * Parameters:
 903:.\Generated_Source\PSoC4/SPIM_1.c ****     *  None.
 904:.\Generated_Source\PSoC4/SPIM_1.c ****     *
 905:.\Generated_Source\PSoC4/SPIM_1.c ****     * Return:
 906:.\Generated_Source\PSoC4/SPIM_1.c ****     *  None.
 907:.\Generated_Source\PSoC4/SPIM_1.c ****     *
 908:.\Generated_Source\PSoC4/SPIM_1.c ****     *******************************************************************************/
 909:.\Generated_Source\PSoC4/SPIM_1.c ****     void SPIM_1_TxEnable(void) 
 910:.\Generated_Source\PSoC4/SPIM_1.c ****     {
 911:.\Generated_Source\PSoC4/SPIM_1.c ****         SPIM_1_CONTROL_REG |= SPIM_1_CTRL_TX_SIGNAL_EN;
 912:.\Generated_Source\PSoC4/SPIM_1.c ****     }
 913:.\Generated_Source\PSoC4/SPIM_1.c **** 
 914:.\Generated_Source\PSoC4/SPIM_1.c **** 
 915:.\Generated_Source\PSoC4/SPIM_1.c ****     /*******************************************************************************
 916:.\Generated_Source\PSoC4/SPIM_1.c ****     * Function Name: SPIM_1_TxDisable
 917:.\Generated_Source\PSoC4/SPIM_1.c ****     ********************************************************************************
 918:.\Generated_Source\PSoC4/SPIM_1.c ****     *
 919:.\Generated_Source\PSoC4/SPIM_1.c ****     * Summary:
 920:.\Generated_Source\PSoC4/SPIM_1.c ****     *  If the SPI master is configured to use a single bi-directional pin then this
 921:.\Generated_Source\PSoC4/SPIM_1.c ****     *  will set the bi-directional pin to receive.
 922:.\Generated_Source\PSoC4/SPIM_1.c ****     *
 923:.\Generated_Source\PSoC4/SPIM_1.c ****     * Parameters:
 924:.\Generated_Source\PSoC4/SPIM_1.c ****     *  None.
 925:.\Generated_Source\PSoC4/SPIM_1.c ****     *
 926:.\Generated_Source\PSoC4/SPIM_1.c ****     * Return:
 927:.\Generated_Source\PSoC4/SPIM_1.c ****     *  None.
 928:.\Generated_Source\PSoC4/SPIM_1.c ****     *
 929:.\Generated_Source\PSoC4/SPIM_1.c ****     *******************************************************************************/
 930:.\Generated_Source\PSoC4/SPIM_1.c ****     void SPIM_1_TxDisable(void) 
ARM GAS  C:\Users\Calin\AppData\Local\Temp\cc0EsBgx.s 			page 26


 931:.\Generated_Source\PSoC4/SPIM_1.c ****     {
 932:.\Generated_Source\PSoC4/SPIM_1.c ****         SPIM_1_CONTROL_REG &= ((uint8) ~SPIM_1_CTRL_TX_SIGNAL_EN);
 933:.\Generated_Source\PSoC4/SPIM_1.c ****     }
 934:.\Generated_Source\PSoC4/SPIM_1.c **** 
 935:.\Generated_Source\PSoC4/SPIM_1.c **** #endif /* (0u != SPIM_1_BIDIRECTIONAL_MODE) */
 936:.\Generated_Source\PSoC4/SPIM_1.c **** 
 937:.\Generated_Source\PSoC4/SPIM_1.c **** 
 938:.\Generated_Source\PSoC4/SPIM_1.c **** /*******************************************************************************
 939:.\Generated_Source\PSoC4/SPIM_1.c **** * Function Name: SPIM_1_PutArray
 940:.\Generated_Source\PSoC4/SPIM_1.c **** ********************************************************************************
 941:.\Generated_Source\PSoC4/SPIM_1.c **** *
 942:.\Generated_Source\PSoC4/SPIM_1.c **** * Summary:
 943:.\Generated_Source\PSoC4/SPIM_1.c **** *  Write available data from ROM/RAM to the TX buffer while space is available
 944:.\Generated_Source\PSoC4/SPIM_1.c **** *  in the TX buffer. Keep trying until all data is passed to the TX buffer.
 945:.\Generated_Source\PSoC4/SPIM_1.c **** *
 946:.\Generated_Source\PSoC4/SPIM_1.c **** * Parameters:
 947:.\Generated_Source\PSoC4/SPIM_1.c **** *  *buffer: Pointer to the location in RAM containing the data to send
 948:.\Generated_Source\PSoC4/SPIM_1.c **** *  byteCount: The number of bytes to move to the transmit buffer.
 949:.\Generated_Source\PSoC4/SPIM_1.c **** *
 950:.\Generated_Source\PSoC4/SPIM_1.c **** * Return:
 951:.\Generated_Source\PSoC4/SPIM_1.c **** *  None.
 952:.\Generated_Source\PSoC4/SPIM_1.c **** *
 953:.\Generated_Source\PSoC4/SPIM_1.c **** * Side Effects:
 954:.\Generated_Source\PSoC4/SPIM_1.c **** *  Will stay in this routine until all data has been sent.  May get locked in
 955:.\Generated_Source\PSoC4/SPIM_1.c **** *  this loop if data is not being initiated by the master if there is not
 956:.\Generated_Source\PSoC4/SPIM_1.c **** *  enough room in the TX FIFO.
 957:.\Generated_Source\PSoC4/SPIM_1.c **** *
 958:.\Generated_Source\PSoC4/SPIM_1.c **** * Reentrant:
 959:.\Generated_Source\PSoC4/SPIM_1.c **** *  No.
 960:.\Generated_Source\PSoC4/SPIM_1.c **** *
 961:.\Generated_Source\PSoC4/SPIM_1.c **** *******************************************************************************/
 962:.\Generated_Source\PSoC4/SPIM_1.c **** void SPIM_1_PutArray(const uint8 buffer[], uint8 byteCount)
 963:.\Generated_Source\PSoC4/SPIM_1.c ****                                                                           
 964:.\Generated_Source\PSoC4/SPIM_1.c **** {
 494              		.loc 1 964 0
 495              		.cfi_startproc
 496              	.LVL20:
 497 0000 70B5     		push	{r4, r5, r6, lr}
 498              		.cfi_def_cfa_offset 16
 499              		.cfi_offset 4, -16
 500              		.cfi_offset 5, -12
 501              		.cfi_offset 6, -8
 502              		.cfi_offset 14, -4
 503 0002 061C     		mov	r6, r0
 504 0004 0C1C     		mov	r4, r1
 505              	.LVL21:
 965:.\Generated_Source\PSoC4/SPIM_1.c ****     uint8 bufIndex;
 966:.\Generated_Source\PSoC4/SPIM_1.c **** 
 967:.\Generated_Source\PSoC4/SPIM_1.c ****     bufIndex = 0u;
 506              		.loc 1 967 0
 507 0006 0025     		mov	r5, #0
 968:.\Generated_Source\PSoC4/SPIM_1.c **** 
 969:.\Generated_Source\PSoC4/SPIM_1.c ****     while(byteCount > 0u)
 508              		.loc 1 969 0
 509 0008 06E0     		b	.L50
 510              	.LVL22:
 511              	.L51:
ARM GAS  C:\Users\Calin\AppData\Local\Temp\cc0EsBgx.s 			page 27


 970:.\Generated_Source\PSoC4/SPIM_1.c ****     {
 971:.\Generated_Source\PSoC4/SPIM_1.c ****         SPIM_1_WriteTxData(buffer[bufIndex]);
 512              		.loc 1 971 0
 513 000a 705D     		ldrb	r0, [r6, r5]
 514 000c FFF7FEFF 		bl	SPIM_1_WriteTxData
 515              	.LVL23:
 972:.\Generated_Source\PSoC4/SPIM_1.c ****         bufIndex++;
 516              		.loc 1 972 0
 517 0010 0135     		add	r5, r5, #1
 518              	.LVL24:
 519 0012 EDB2     		uxtb	r5, r5
 520              	.LVL25:
 973:.\Generated_Source\PSoC4/SPIM_1.c ****         byteCount--;
 521              		.loc 1 973 0
 522 0014 013C     		sub	r4, r4, #1
 523              	.LVL26:
 524 0016 E4B2     		uxtb	r4, r4
 525              	.LVL27:
 526              	.L50:
 969:.\Generated_Source\PSoC4/SPIM_1.c ****     {
 527              		.loc 1 969 0
 528 0018 002C     		cmp	r4, #0
 529 001a F6D1     		bne	.L51
 974:.\Generated_Source\PSoC4/SPIM_1.c ****     }
 975:.\Generated_Source\PSoC4/SPIM_1.c **** }
 530              		.loc 1 975 0
 531              		@ sp needed
 532              	.LVL28:
 533              	.LVL29:
 534              	.LVL30:
 535 001c 70BD     		pop	{r4, r5, r6, pc}
 536              		.cfi_endproc
 537              	.LFE18:
 538              		.size	SPIM_1_PutArray, .-SPIM_1_PutArray
 539 001e C046     		.section	.text.SPIM_1_ClearFIFO,"ax",%progbits
 540              		.align	2
 541              		.global	SPIM_1_ClearFIFO
 542              		.code	16
 543              		.thumb_func
 544              		.type	SPIM_1_ClearFIFO, %function
 545              	SPIM_1_ClearFIFO:
 546              	.LFB19:
 976:.\Generated_Source\PSoC4/SPIM_1.c **** 
 977:.\Generated_Source\PSoC4/SPIM_1.c **** 
 978:.\Generated_Source\PSoC4/SPIM_1.c **** /*******************************************************************************
 979:.\Generated_Source\PSoC4/SPIM_1.c **** * Function Name: SPIM_1_ClearFIFO
 980:.\Generated_Source\PSoC4/SPIM_1.c **** ********************************************************************************
 981:.\Generated_Source\PSoC4/SPIM_1.c **** *
 982:.\Generated_Source\PSoC4/SPIM_1.c **** * Summary:
 983:.\Generated_Source\PSoC4/SPIM_1.c **** *  Clear the RX and TX FIFO's of all data for a fresh start.
 984:.\Generated_Source\PSoC4/SPIM_1.c **** *
 985:.\Generated_Source\PSoC4/SPIM_1.c **** * Parameters:
 986:.\Generated_Source\PSoC4/SPIM_1.c **** *  None.
 987:.\Generated_Source\PSoC4/SPIM_1.c **** *
 988:.\Generated_Source\PSoC4/SPIM_1.c **** * Return:
 989:.\Generated_Source\PSoC4/SPIM_1.c **** *  None.
 990:.\Generated_Source\PSoC4/SPIM_1.c **** *
ARM GAS  C:\Users\Calin\AppData\Local\Temp\cc0EsBgx.s 			page 28


 991:.\Generated_Source\PSoC4/SPIM_1.c **** * Side Effects:
 992:.\Generated_Source\PSoC4/SPIM_1.c **** *  Clear status register of the component.
 993:.\Generated_Source\PSoC4/SPIM_1.c **** *
 994:.\Generated_Source\PSoC4/SPIM_1.c **** *******************************************************************************/
 995:.\Generated_Source\PSoC4/SPIM_1.c **** void SPIM_1_ClearFIFO(void) 
 996:.\Generated_Source\PSoC4/SPIM_1.c **** {
 547              		.loc 1 996 0
 548              		.cfi_startproc
 549 0000 08B5     		push	{r3, lr}
 550              		.cfi_def_cfa_offset 8
 551              		.cfi_offset 3, -8
 552              		.cfi_offset 14, -4
 997:.\Generated_Source\PSoC4/SPIM_1.c ****     uint8 enableInterrupts;
 998:.\Generated_Source\PSoC4/SPIM_1.c **** 
 999:.\Generated_Source\PSoC4/SPIM_1.c ****     /* Clear Hardware RX FIFO */
1000:.\Generated_Source\PSoC4/SPIM_1.c ****     while(0u !=(SPIM_1_RX_STATUS_REG & SPIM_1_STS_RX_FIFO_NOT_EMPTY))
 553              		.loc 1 1000 0
 554 0002 01E0     		b	.L53
 555              	.L54:
1001:.\Generated_Source\PSoC4/SPIM_1.c ****     {
1002:.\Generated_Source\PSoC4/SPIM_1.c ****         (void) CY_GET_REG8(SPIM_1_RXDATA_PTR);
 556              		.loc 1 1002 0
 557 0004 094B     		ldr	r3, .L55
 558 0006 1B78     		ldrb	r3, [r3]
 559              	.L53:
1000:.\Generated_Source\PSoC4/SPIM_1.c ****     {
 560              		.loc 1 1000 0
 561 0008 094B     		ldr	r3, .L55+4
 562 000a 1B78     		ldrb	r3, [r3]
 563 000c 9B06     		lsl	r3, r3, #26
 564 000e F9D4     		bmi	.L54
1003:.\Generated_Source\PSoC4/SPIM_1.c ****     }
1004:.\Generated_Source\PSoC4/SPIM_1.c **** 
1005:.\Generated_Source\PSoC4/SPIM_1.c ****     enableInterrupts = CyEnterCriticalSection();
 565              		.loc 1 1005 0
 566 0010 FFF7FEFF 		bl	CyEnterCriticalSection
 567              	.LVL31:
1006:.\Generated_Source\PSoC4/SPIM_1.c ****     /* Clear TX FIFO */
1007:.\Generated_Source\PSoC4/SPIM_1.c ****     SPIM_1_AUX_CONTROL_DP0_REG |= ((uint8)  SPIM_1_TX_FIFO_CLR);
 568              		.loc 1 1007 0
 569 0014 074B     		ldr	r3, .L55+8
 570 0016 1978     		ldrb	r1, [r3]
 571 0018 0122     		mov	r2, #1
 572 001a 0A43     		orr	r2, r1
 573 001c 1A70     		strb	r2, [r3]
1008:.\Generated_Source\PSoC4/SPIM_1.c ****     SPIM_1_AUX_CONTROL_DP0_REG &= ((uint8) ~SPIM_1_TX_FIFO_CLR);
 574              		.loc 1 1008 0
 575 001e 1A78     		ldrb	r2, [r3]
 576 0020 0121     		mov	r1, #1
 577 0022 8A43     		bic	r2, r1
 578 0024 1A70     		strb	r2, [r3]
1009:.\Generated_Source\PSoC4/SPIM_1.c **** 
1010:.\Generated_Source\PSoC4/SPIM_1.c ****     #if(SPIM_1_USE_SECOND_DATAPATH)
1011:.\Generated_Source\PSoC4/SPIM_1.c ****         /* Clear TX FIFO for 2nd Datapath */
1012:.\Generated_Source\PSoC4/SPIM_1.c ****         SPIM_1_AUX_CONTROL_DP1_REG |= ((uint8)  SPIM_1_TX_FIFO_CLR);
1013:.\Generated_Source\PSoC4/SPIM_1.c ****         SPIM_1_AUX_CONTROL_DP1_REG &= ((uint8) ~SPIM_1_TX_FIFO_CLR);
1014:.\Generated_Source\PSoC4/SPIM_1.c ****     #endif /* (SPIM_1_USE_SECOND_DATAPATH) */
ARM GAS  C:\Users\Calin\AppData\Local\Temp\cc0EsBgx.s 			page 29


1015:.\Generated_Source\PSoC4/SPIM_1.c ****     CyExitCriticalSection(enableInterrupts);
 579              		.loc 1 1015 0
 580 0026 FFF7FEFF 		bl	CyExitCriticalSection
 581              	.LVL32:
1016:.\Generated_Source\PSoC4/SPIM_1.c **** }
 582              		.loc 1 1016 0
 583              		@ sp needed
 584 002a 08BD     		pop	{r3, pc}
 585              	.L56:
 586              		.align	2
 587              	.L55:
 588 002c 52000F40 		.word	1074724946
 589 0030 61000F40 		.word	1074724961
 590 0034 92000F40 		.word	1074725010
 591              		.cfi_endproc
 592              	.LFE19:
 593              		.size	SPIM_1_ClearFIFO, .-SPIM_1_ClearFIFO
 594              		.section	.text.SPIM_1_Init,"ax",%progbits
 595              		.align	2
 596              		.global	SPIM_1_Init
 597              		.code	16
 598              		.thumb_func
 599              		.type	SPIM_1_Init, %function
 600              	SPIM_1_Init:
 601              	.LFB0:
  64:.\Generated_Source\PSoC4/SPIM_1.c ****     /* Initialize the Bit counter */
 602              		.loc 1 64 0
 603              		.cfi_startproc
 604 0000 08B5     		push	{r3, lr}
 605              		.cfi_def_cfa_offset 8
 606              		.cfi_offset 3, -8
 607              		.cfi_offset 14, -4
  66:.\Generated_Source\PSoC4/SPIM_1.c **** 
 608              		.loc 1 66 0
 609 0002 0F22     		mov	r2, #15
 610 0004 064B     		ldr	r3, .L58
 611 0006 1A70     		strb	r2, [r3]
  83:.\Generated_Source\PSoC4/SPIM_1.c **** 
 612              		.loc 1 83 0
 613 0008 FFF7FEFF 		bl	SPIM_1_ClearFIFO
 614              	.LVL33:
  97:.\Generated_Source\PSoC4/SPIM_1.c ****     (void) SPIM_1_ReadRxStatus(); /* Clear Rx status and swStatusRx */
 615              		.loc 1 97 0
 616 000c FFF7FEFF 		bl	SPIM_1_ReadTxStatus
 617              	.LVL34:
  98:.\Generated_Source\PSoC4/SPIM_1.c **** 
 618              		.loc 1 98 0
 619 0010 FFF7FEFF 		bl	SPIM_1_ReadRxStatus
 620              	.LVL35:
 101:.\Generated_Source\PSoC4/SPIM_1.c ****     SPIM_1_RX_STATUS_MASK_REG = SPIM_1_RX_INIT_INTERRUPTS_MASK;
 621              		.loc 1 101 0
 622 0014 0023     		mov	r3, #0
 623 0016 034A     		ldr	r2, .L58+4
 624 0018 1370     		strb	r3, [r2]
 102:.\Generated_Source\PSoC4/SPIM_1.c **** }
 625              		.loc 1 102 0
 626 001a 034A     		ldr	r2, .L58+8
ARM GAS  C:\Users\Calin\AppData\Local\Temp\cc0EsBgx.s 			page 30


 627 001c 1370     		strb	r3, [r2]
 103:.\Generated_Source\PSoC4/SPIM_1.c **** 
 628              		.loc 1 103 0
 629              		@ sp needed
 630 001e 08BD     		pop	{r3, pc}
 631              	.L59:
 632              		.align	2
 633              	.L58:
 634 0020 82000F40 		.word	1074724994
 635 0024 83000F40 		.word	1074724995
 636 0028 81000F40 		.word	1074724993
 637              		.cfi_endproc
 638              	.LFE0:
 639              		.size	SPIM_1_Init, .-SPIM_1_Init
 640              		.section	.text.SPIM_1_Start,"ax",%progbits
 641              		.align	2
 642              		.global	SPIM_1_Start
 643              		.code	16
 644              		.thumb_func
 645              		.type	SPIM_1_Start, %function
 646              	SPIM_1_Start:
 647              	.LFB2:
 164:.\Generated_Source\PSoC4/SPIM_1.c ****     if(0u == SPIM_1_initVar)
 648              		.loc 1 164 0
 649              		.cfi_startproc
 650 0000 08B5     		push	{r3, lr}
 651              		.cfi_def_cfa_offset 8
 652              		.cfi_offset 3, -8
 653              		.cfi_offset 14, -4
 165:.\Generated_Source\PSoC4/SPIM_1.c ****     {
 654              		.loc 1 165 0
 655 0002 064B     		ldr	r3, .L62
 656 0004 1B78     		ldrb	r3, [r3]
 657 0006 002B     		cmp	r3, #0
 658 0008 04D1     		bne	.L61
 167:.\Generated_Source\PSoC4/SPIM_1.c ****         SPIM_1_initVar = 1u;
 659              		.loc 1 167 0
 660 000a FFF7FEFF 		bl	SPIM_1_Init
 661              	.LVL36:
 168:.\Generated_Source\PSoC4/SPIM_1.c ****     }
 662              		.loc 1 168 0
 663 000e 0122     		mov	r2, #1
 664 0010 024B     		ldr	r3, .L62
 665 0012 1A70     		strb	r2, [r3]
 666              	.L61:
 171:.\Generated_Source\PSoC4/SPIM_1.c **** }
 667              		.loc 1 171 0
 668 0014 FFF7FEFF 		bl	SPIM_1_Enable
 669              	.LVL37:
 172:.\Generated_Source\PSoC4/SPIM_1.c **** 
 670              		.loc 1 172 0
 671              		@ sp needed
 672 0018 08BD     		pop	{r3, pc}
 673              	.L63:
 674 001a C046     		.align	2
 675              	.L62:
 676 001c 00000000 		.word	.LANCHOR0
ARM GAS  C:\Users\Calin\AppData\Local\Temp\cc0EsBgx.s 			page 31


 677              		.cfi_endproc
 678              	.LFE2:
 679              		.size	SPIM_1_Start, .-SPIM_1_Start
 680              		.section	.text.SPIM_1_EnableInt,"ax",%progbits
 681              		.align	2
 682              		.global	SPIM_1_EnableInt
 683              		.code	16
 684              		.thumb_func
 685              		.type	SPIM_1_EnableInt, %function
 686              	SPIM_1_EnableInt:
 687              	.LFB20:
1017:.\Generated_Source\PSoC4/SPIM_1.c **** 
1018:.\Generated_Source\PSoC4/SPIM_1.c **** 
1019:.\Generated_Source\PSoC4/SPIM_1.c **** /* Following functions are for version Compatibility, they are obsolete.
1020:.\Generated_Source\PSoC4/SPIM_1.c **** *  Please do not use it in new projects.
1021:.\Generated_Source\PSoC4/SPIM_1.c **** */
1022:.\Generated_Source\PSoC4/SPIM_1.c **** 
1023:.\Generated_Source\PSoC4/SPIM_1.c **** 
1024:.\Generated_Source\PSoC4/SPIM_1.c **** /*******************************************************************************
1025:.\Generated_Source\PSoC4/SPIM_1.c **** * Function Name: SPIM_1_EnableInt
1026:.\Generated_Source\PSoC4/SPIM_1.c **** ********************************************************************************
1027:.\Generated_Source\PSoC4/SPIM_1.c **** *
1028:.\Generated_Source\PSoC4/SPIM_1.c **** * Summary:
1029:.\Generated_Source\PSoC4/SPIM_1.c **** *  Enable internal interrupt generation.
1030:.\Generated_Source\PSoC4/SPIM_1.c **** *
1031:.\Generated_Source\PSoC4/SPIM_1.c **** * Parameters:
1032:.\Generated_Source\PSoC4/SPIM_1.c **** *  None.
1033:.\Generated_Source\PSoC4/SPIM_1.c **** *
1034:.\Generated_Source\PSoC4/SPIM_1.c **** * Return:
1035:.\Generated_Source\PSoC4/SPIM_1.c **** *  None.
1036:.\Generated_Source\PSoC4/SPIM_1.c **** *
1037:.\Generated_Source\PSoC4/SPIM_1.c **** * Theory:
1038:.\Generated_Source\PSoC4/SPIM_1.c **** *  Enable the internal interrupt output -or- the interrupt component itself.
1039:.\Generated_Source\PSoC4/SPIM_1.c **** *
1040:.\Generated_Source\PSoC4/SPIM_1.c **** *******************************************************************************/
1041:.\Generated_Source\PSoC4/SPIM_1.c **** void SPIM_1_EnableInt(void) 
1042:.\Generated_Source\PSoC4/SPIM_1.c **** {
 688              		.loc 1 1042 0
 689              		.cfi_startproc
1043:.\Generated_Source\PSoC4/SPIM_1.c ****     SPIM_1_EnableRxInt();
1044:.\Generated_Source\PSoC4/SPIM_1.c ****     SPIM_1_EnableTxInt();
1045:.\Generated_Source\PSoC4/SPIM_1.c **** }
 690              		.loc 1 1045 0
 691              		@ sp needed
 692 0000 7047     		bx	lr
 693              		.cfi_endproc
 694              	.LFE20:
 695              		.size	SPIM_1_EnableInt, .-SPIM_1_EnableInt
 696 0002 C046     		.section	.text.SPIM_1_DisableInt,"ax",%progbits
 697              		.align	2
 698              		.global	SPIM_1_DisableInt
 699              		.code	16
 700              		.thumb_func
 701              		.type	SPIM_1_DisableInt, %function
 702              	SPIM_1_DisableInt:
 703              	.LFB21:
1046:.\Generated_Source\PSoC4/SPIM_1.c **** 
ARM GAS  C:\Users\Calin\AppData\Local\Temp\cc0EsBgx.s 			page 32


1047:.\Generated_Source\PSoC4/SPIM_1.c **** 
1048:.\Generated_Source\PSoC4/SPIM_1.c **** /*******************************************************************************
1049:.\Generated_Source\PSoC4/SPIM_1.c **** * Function Name: SPIM_1_DisableInt
1050:.\Generated_Source\PSoC4/SPIM_1.c **** ********************************************************************************
1051:.\Generated_Source\PSoC4/SPIM_1.c **** *
1052:.\Generated_Source\PSoC4/SPIM_1.c **** * Summary:
1053:.\Generated_Source\PSoC4/SPIM_1.c **** *  Disable internal interrupt generation.
1054:.\Generated_Source\PSoC4/SPIM_1.c **** *
1055:.\Generated_Source\PSoC4/SPIM_1.c **** * Parameters:
1056:.\Generated_Source\PSoC4/SPIM_1.c **** *  None.
1057:.\Generated_Source\PSoC4/SPIM_1.c **** *
1058:.\Generated_Source\PSoC4/SPIM_1.c **** * Return:
1059:.\Generated_Source\PSoC4/SPIM_1.c **** *  None.
1060:.\Generated_Source\PSoC4/SPIM_1.c **** *
1061:.\Generated_Source\PSoC4/SPIM_1.c **** * Theory:
1062:.\Generated_Source\PSoC4/SPIM_1.c **** *  Disable the internal interrupt output -or- the interrupt component itself.
1063:.\Generated_Source\PSoC4/SPIM_1.c **** *
1064:.\Generated_Source\PSoC4/SPIM_1.c **** *******************************************************************************/
1065:.\Generated_Source\PSoC4/SPIM_1.c **** void SPIM_1_DisableInt(void) 
1066:.\Generated_Source\PSoC4/SPIM_1.c **** {
 704              		.loc 1 1066 0
 705              		.cfi_startproc
1067:.\Generated_Source\PSoC4/SPIM_1.c ****     SPIM_1_DisableTxInt();
1068:.\Generated_Source\PSoC4/SPIM_1.c ****     SPIM_1_DisableRxInt();
1069:.\Generated_Source\PSoC4/SPIM_1.c **** }
 706              		.loc 1 1069 0
 707              		@ sp needed
 708 0000 7047     		bx	lr
 709              		.cfi_endproc
 710              	.LFE21:
 711              		.size	SPIM_1_DisableInt, .-SPIM_1_DisableInt
 712 0002 C046     		.section	.text.SPIM_1_SetInterruptMode,"ax",%progbits
 713              		.align	2
 714              		.global	SPIM_1_SetInterruptMode
 715              		.code	16
 716              		.thumb_func
 717              		.type	SPIM_1_SetInterruptMode, %function
 718              	SPIM_1_SetInterruptMode:
 719              	.LFB22:
1070:.\Generated_Source\PSoC4/SPIM_1.c **** 
1071:.\Generated_Source\PSoC4/SPIM_1.c **** 
1072:.\Generated_Source\PSoC4/SPIM_1.c **** /*******************************************************************************
1073:.\Generated_Source\PSoC4/SPIM_1.c **** * Function Name: SPIM_1_SetInterruptMode
1074:.\Generated_Source\PSoC4/SPIM_1.c **** ********************************************************************************
1075:.\Generated_Source\PSoC4/SPIM_1.c **** *
1076:.\Generated_Source\PSoC4/SPIM_1.c **** * Summary:
1077:.\Generated_Source\PSoC4/SPIM_1.c **** *  Configure which status bits trigger an interrupt event.
1078:.\Generated_Source\PSoC4/SPIM_1.c **** *
1079:.\Generated_Source\PSoC4/SPIM_1.c **** * Parameters:
1080:.\Generated_Source\PSoC4/SPIM_1.c **** *  intSrc: An or'd combination of the desired status bit masks (defined in the
1081:.\Generated_Source\PSoC4/SPIM_1.c **** *  header file).
1082:.\Generated_Source\PSoC4/SPIM_1.c **** *
1083:.\Generated_Source\PSoC4/SPIM_1.c **** * Return:
1084:.\Generated_Source\PSoC4/SPIM_1.c **** *  None.
1085:.\Generated_Source\PSoC4/SPIM_1.c **** *
1086:.\Generated_Source\PSoC4/SPIM_1.c **** * Theory:
1087:.\Generated_Source\PSoC4/SPIM_1.c **** *  Enables the output of specific status bits to the interrupt controller.
ARM GAS  C:\Users\Calin\AppData\Local\Temp\cc0EsBgx.s 			page 33


1088:.\Generated_Source\PSoC4/SPIM_1.c **** *
1089:.\Generated_Source\PSoC4/SPIM_1.c **** *******************************************************************************/
1090:.\Generated_Source\PSoC4/SPIM_1.c **** void SPIM_1_SetInterruptMode(uint8 intSrc) 
1091:.\Generated_Source\PSoC4/SPIM_1.c **** {
 720              		.loc 1 1091 0
 721              		.cfi_startproc
 722              	.LVL38:
1092:.\Generated_Source\PSoC4/SPIM_1.c ****     SPIM_1_TX_STATUS_MASK_REG  = (intSrc & ((uint8) ~SPIM_1_STS_SPI_IDLE));
 723              		.loc 1 1092 0
 724 0000 1023     		mov	r3, #16
 725 0002 021C     		mov	r2, r0
 726 0004 9A43     		bic	r2, r3
 727 0006 024B     		ldr	r3, .L67
 728 0008 1A70     		strb	r2, [r3]
1093:.\Generated_Source\PSoC4/SPIM_1.c ****     SPIM_1_RX_STATUS_MASK_REG  =  intSrc;
 729              		.loc 1 1093 0
 730 000a 024B     		ldr	r3, .L67+4
 731 000c 1870     		strb	r0, [r3]
1094:.\Generated_Source\PSoC4/SPIM_1.c **** }
 732              		.loc 1 1094 0
 733              		@ sp needed
 734 000e 7047     		bx	lr
 735              	.L68:
 736              		.align	2
 737              	.L67:
 738 0010 83000F40 		.word	1074724995
 739 0014 81000F40 		.word	1074724993
 740              		.cfi_endproc
 741              	.LFE22:
 742              		.size	SPIM_1_SetInterruptMode, .-SPIM_1_SetInterruptMode
 743              		.section	.text.SPIM_1_ReadStatus,"ax",%progbits
 744              		.align	2
 745              		.global	SPIM_1_ReadStatus
 746              		.code	16
 747              		.thumb_func
 748              		.type	SPIM_1_ReadStatus, %function
 749              	SPIM_1_ReadStatus:
 750              	.LFB23:
1095:.\Generated_Source\PSoC4/SPIM_1.c **** 
1096:.\Generated_Source\PSoC4/SPIM_1.c **** 
1097:.\Generated_Source\PSoC4/SPIM_1.c **** /*******************************************************************************
1098:.\Generated_Source\PSoC4/SPIM_1.c **** * Function Name: SPIM_1_ReadStatus
1099:.\Generated_Source\PSoC4/SPIM_1.c **** ********************************************************************************
1100:.\Generated_Source\PSoC4/SPIM_1.c **** *
1101:.\Generated_Source\PSoC4/SPIM_1.c **** * Summary:
1102:.\Generated_Source\PSoC4/SPIM_1.c **** *  Read the status register for the component.
1103:.\Generated_Source\PSoC4/SPIM_1.c **** *
1104:.\Generated_Source\PSoC4/SPIM_1.c **** * Parameters:
1105:.\Generated_Source\PSoC4/SPIM_1.c **** *  None.
1106:.\Generated_Source\PSoC4/SPIM_1.c **** *
1107:.\Generated_Source\PSoC4/SPIM_1.c **** * Return:
1108:.\Generated_Source\PSoC4/SPIM_1.c **** *  Contents of the status register.
1109:.\Generated_Source\PSoC4/SPIM_1.c **** *
1110:.\Generated_Source\PSoC4/SPIM_1.c **** * Global variables:
1111:.\Generated_Source\PSoC4/SPIM_1.c **** *  SPIM_1_swStatus - used to store in software status register,
1112:.\Generated_Source\PSoC4/SPIM_1.c **** *  modified every function call - resets to zero.
1113:.\Generated_Source\PSoC4/SPIM_1.c **** *
ARM GAS  C:\Users\Calin\AppData\Local\Temp\cc0EsBgx.s 			page 34


1114:.\Generated_Source\PSoC4/SPIM_1.c **** * Theory:
1115:.\Generated_Source\PSoC4/SPIM_1.c **** *  Allows the user and the API to read the status register for error detection
1116:.\Generated_Source\PSoC4/SPIM_1.c **** *  and flow control.
1117:.\Generated_Source\PSoC4/SPIM_1.c **** *
1118:.\Generated_Source\PSoC4/SPIM_1.c **** * Side Effects:
1119:.\Generated_Source\PSoC4/SPIM_1.c **** *  Clear status register of the component.
1120:.\Generated_Source\PSoC4/SPIM_1.c **** *
1121:.\Generated_Source\PSoC4/SPIM_1.c **** * Reentrant:
1122:.\Generated_Source\PSoC4/SPIM_1.c **** *  No.
1123:.\Generated_Source\PSoC4/SPIM_1.c **** *
1124:.\Generated_Source\PSoC4/SPIM_1.c **** *******************************************************************************/
1125:.\Generated_Source\PSoC4/SPIM_1.c **** uint8 SPIM_1_ReadStatus(void) 
1126:.\Generated_Source\PSoC4/SPIM_1.c **** {
 751              		.loc 1 1126 0
 752              		.cfi_startproc
1127:.\Generated_Source\PSoC4/SPIM_1.c ****     uint8 tmpStatus;
1128:.\Generated_Source\PSoC4/SPIM_1.c **** 
1129:.\Generated_Source\PSoC4/SPIM_1.c ****     #if(SPIM_1_TX_SOFTWARE_BUF_ENABLED || SPIM_1_RX_SOFTWARE_BUF_ENABLED)
1130:.\Generated_Source\PSoC4/SPIM_1.c **** 
1131:.\Generated_Source\PSoC4/SPIM_1.c ****         SPIM_1_DisableInt();
1132:.\Generated_Source\PSoC4/SPIM_1.c **** 
1133:.\Generated_Source\PSoC4/SPIM_1.c ****         tmpStatus  = SPIM_1_GET_STATUS_RX(SPIM_1_swStatusRx);
1134:.\Generated_Source\PSoC4/SPIM_1.c ****         tmpStatus |= SPIM_1_GET_STATUS_TX(SPIM_1_swStatusTx);
1135:.\Generated_Source\PSoC4/SPIM_1.c ****         tmpStatus &= ((uint8) ~SPIM_1_STS_SPI_IDLE);
1136:.\Generated_Source\PSoC4/SPIM_1.c **** 
1137:.\Generated_Source\PSoC4/SPIM_1.c ****         SPIM_1_swStatusTx = 0u;
1138:.\Generated_Source\PSoC4/SPIM_1.c ****         SPIM_1_swStatusRx = 0u;
1139:.\Generated_Source\PSoC4/SPIM_1.c **** 
1140:.\Generated_Source\PSoC4/SPIM_1.c ****         SPIM_1_EnableInt();
1141:.\Generated_Source\PSoC4/SPIM_1.c **** 
1142:.\Generated_Source\PSoC4/SPIM_1.c ****     #else
1143:.\Generated_Source\PSoC4/SPIM_1.c **** 
1144:.\Generated_Source\PSoC4/SPIM_1.c ****         tmpStatus  = SPIM_1_RX_STATUS_REG;
 753              		.loc 1 1144 0
 754 0000 034B     		ldr	r3, .L70
 755 0002 1B78     		ldrb	r3, [r3]
 756              	.LVL39:
1145:.\Generated_Source\PSoC4/SPIM_1.c ****         tmpStatus |= SPIM_1_TX_STATUS_REG;
 757              		.loc 1 1145 0
 758 0004 034A     		ldr	r2, .L70+4
 759 0006 1078     		ldrb	r0, [r2]
 760 0008 1843     		orr	r0, r3
 761              	.LVL40:
1146:.\Generated_Source\PSoC4/SPIM_1.c ****         tmpStatus &= ((uint8) ~SPIM_1_STS_SPI_IDLE);
 762              		.loc 1 1146 0
 763 000a 1023     		mov	r3, #16
 764 000c 9843     		bic	r0, r3
 765              	.LVL41:
1147:.\Generated_Source\PSoC4/SPIM_1.c **** 
1148:.\Generated_Source\PSoC4/SPIM_1.c ****     #endif /* (SPIM_1_TX_SOFTWARE_BUF_ENABLED || SPIM_1_RX_SOFTWARE_BUF_ENABLED) */
1149:.\Generated_Source\PSoC4/SPIM_1.c **** 
1150:.\Generated_Source\PSoC4/SPIM_1.c ****     return(tmpStatus);
1151:.\Generated_Source\PSoC4/SPIM_1.c **** }
 766              		.loc 1 1151 0
 767              		@ sp needed
 768 000e 7047     		bx	lr
 769              	.L71:
ARM GAS  C:\Users\Calin\AppData\Local\Temp\cc0EsBgx.s 			page 35


 770              		.align	2
 771              	.L70:
 772 0010 61000F40 		.word	1074724961
 773 0014 63000F40 		.word	1074724963
 774              		.cfi_endproc
 775              	.LFE23:
 776              		.size	SPIM_1_ReadStatus, .-SPIM_1_ReadStatus
 777              		.comm	SPIM_1_swStatusRx,1,1
 778              		.comm	SPIM_1_swStatusTx,1,1
 779              		.global	SPIM_1_initVar
 780              		.bss
 781              		.set	.LANCHOR0,. + 0
 782              		.type	SPIM_1_initVar, %object
 783              		.size	SPIM_1_initVar, 1
 784              	SPIM_1_initVar:
 785 0000 00       		.space	1
 786              		.text
 787              	.Letext0:
 788              		.file 2 ".\\Generated_Source\\PSoC4\\cytypes.h"
 789              		.file 3 ".\\Generated_Source\\PSoC4\\SPIM_1_IntClock.h"
 790              		.file 4 ".\\Generated_Source\\PSoC4\\CyLib.h"